; ModuleID = 'lulesh.cc'
target datalayout = "e-m:e-i64:64-f80:128-n8:16:32:64-S128"
target triple = "x86_64-pc-linux-gnu"

%"class.std::ios_base::Init" = type { i8 }
%struct._IO_FILE = type { i32, i8*, i8*, i8*, i8*, i8*, i8*, i8*, i8*, i8*, i8*, i8*, %struct._IO_marker*, %struct._IO_FILE*, i32, i32, i64, i16, i8, [1 x i8], i8*, i64, i8*, i8*, i8*, i8*, i64, i32, [20 x i8] }
%struct._IO_marker = type { %struct._IO_marker*, %struct._IO_FILE*, i32 }
%class.Domain = type { %"class.std::vector", %"class.std::vector", %"class.std::vector", %"class.std::vector", %"class.std::vector", %"class.std::vector", %"class.std::vector", %"class.std::vector", %"class.std::vector", %"class.std::vector", %"class.std::vector", %"class.std::vector", %"class.std::vector", %"class.std::vector.0", %"class.std::vector.0", %"class.std::vector.0", i32, i32, i32*, i32*, i32**, %"class.std::vector.0", %"class.std::vector.0", %"class.std::vector.0", %"class.std::vector.0", %"class.std::vector.0", %"class.std::vector.0", %"class.std::vector.0", %"class.std::vector.0", %"class.std::vector", %"class.std::vector", %"class.std::vector", %"class.std::vector", %"class.std::vector", %"class.std::vector", %"class.std::vector", %"class.std::vector", %"class.std::vector", %"class.std::vector", %"class.std::vector", %"class.std::vector", %"class.std::vector", %"class.std::vector", %"class.std::vector", %"class.std::vector", %"class.std::vector", %"class.std::vector", %"class.std::vector", %"class.std::vector", %"class.std::vector", %"class.std::vector", double, double, double, double, double, double, double, double, double, double, double, double, double, double, double, double, double, double, double, double, double, i32, double, double, double, double, double, double, double, i32, i32, i32, i32, i32, i32, i32, i32, i32, i32, i32, i32, i32*, i32*, i32, i32, i32, i32, i32, i32 }
%"class.std::vector.0" = type { %"struct.std::_Vector_base.1" }
%"struct.std::_Vector_base.1" = type { %"struct.std::_Vector_base<int, std::allocator<int> >::_Vector_impl" }
%"struct.std::_Vector_base<int, std::allocator<int> >::_Vector_impl" = type { i32*, i32*, i32* }
%"class.std::vector" = type { %"struct.std::_Vector_base" }
%"struct.std::_Vector_base" = type { %"struct.std::_Vector_base<double, std::allocator<double> >::_Vector_impl" }
%"struct.std::_Vector_base<double, std::allocator<double> >::_Vector_impl" = type { double*, double*, double* }
%struct.cmdLineOpts = type { i32, i32, i32, i32, i32, i32, i32, i32, i32 }
%struct.timeval = type { i64, i64 }
%struct.timezone = type { i32, i32 }
%"class.__gnu_cxx::__normal_iterator" = type { i32* }
%"class.__gnu_cxx::__normal_iterator.5" = type { double* }
%"class.std::allocator" = type { i8 }
%"class.__gnu_cxx::new_allocator" = type { i8 }

$_ZN6Domain8nodelistEi = comdat any

$_ZN6Domain4voloEi = comdat any

$_ZN6Domain1vEi = comdat any

$_ZN6Domain4delvEi = comdat any

$_ZN6Domain6arealgEi = comdat any

$_ZN6Domain2xdEi = comdat any

$_ZN6Domain2ydEi = comdat any

$_ZN6Domain2zdEi = comdat any

$_ZN6Domain3dxxEi = comdat any

$_ZN6Domain3dyyEi = comdat any

$_ZN6Domain3dzzEi = comdat any

$_ZN6Domain4timeEv = comdat any

$_ZN6Domain8stoptimeEv = comdat any

$_ZN6Domain5cycleEv = comdat any

$_ZN6Domain9deltatimeEv = comdat any

$_ZNSt6vectorIiSaIiEEixEm = comdat any

$_ZN6Domain1xEi = comdat any

$_ZN6Domain1yEi = comdat any

$_ZN6Domain1zEi = comdat any

$_ZNSt6vectorIdSaIdEEixEm = comdat any

$_ZSt3maxIdERKT_S2_S2_ = comdat any

$_Z4SQRTd = comdat any

$_ZN6Domain7dtfixedEv = comdat any

$_ZN6Domain9dtcourantEv = comdat any

$_ZN6Domain7dthydroEv = comdat any

$_ZN6Domain15deltatimemultlbEv = comdat any

$_ZN6Domain15deltatimemultubEv = comdat any

$_ZN6Domain5dtmaxEv = comdat any

$_ZN6Domain7numElemEv = comdat any

$_ZNK6Domain5u_cutEv = comdat any

$_ZN6Domain7numNodeEv = comdat any

$_ZN6Domain2fxEi = comdat any

$_ZN6Domain2fyEi = comdat any

$_ZN6Domain2fzEi = comdat any

$_ZNK6Domain6hgcoefEv = comdat any

$_Z8AllocateIdEPT_m = comdat any

$_Z7ReleaseIdEvPPT_ = comdat any

$_ZN6Domain1pEi = comdat any

$_ZN6Domain1qEi = comdat any

$_ZN6Domain13nodeElemCountEi = comdat any

$_ZN6Domain18nodeElemCornerListEi = comdat any

$_ZN6Domain2ssEi = comdat any

$_ZN6Domain8elemMassEi = comdat any

$_Z4CBRTd = comdat any

$_ZN6Domain9nodalMassEi = comdat any

$_ZN6Domain3xddEi = comdat any

$_ZN6Domain3yddEi = comdat any

$_ZN6Domain3zddEi = comdat any

$_ZN6Domain5sizeXEv = comdat any

$_ZN6Domain10symmXemptyEv = comdat any

$_ZN6Domain5symmXEi = comdat any

$_ZN6Domain10symmYemptyEv = comdat any

$_ZN6Domain5symmYEi = comdat any

$_ZN6Domain10symmZemptyEv = comdat any

$_ZN6Domain5symmZEi = comdat any

$_ZNKSt6vectorIiSaIiEE5emptyEv = comdat any

$_ZN9__gnu_cxxeqIPKiSt6vectorIiSaIiEEEEbRKNS_17__normal_iteratorIT_T0_EESB_ = comdat any

$_ZNKSt6vectorIiSaIiEE5beginEv = comdat any

$_ZNKSt6vectorIiSaIiEE3endEv = comdat any

$_ZNK9__gnu_cxx17__normal_iteratorIPKiSt6vectorIiSaIiEEE4baseEv = comdat any

$_ZN9__gnu_cxx17__normal_iteratorIPKiSt6vectorIiSaIiEEEC2ERKS2_ = comdat any

$_Z4FABSd = comdat any

$_ZNK6Domain5v_cutEv = comdat any

$_ZN6Domain15AllocateStrainsEi = comdat any

$_ZN6Domain4vdovEi = comdat any

$_ZN6Domain17DeallocateStrainsEv = comdat any

$_ZNSt6vectorIdSaIdEE6resizeEmd = comdat any

$_ZNKSt6vectorIdSaIdEE4sizeEv = comdat any

$_ZNSt6vectorIdSaIdEE6insertEN9__gnu_cxx17__normal_iteratorIPdS1_EEmRKd = comdat any

$_ZNSt6vectorIdSaIdEE3endEv = comdat any

$_ZNSt6vectorIdSaIdEE15_M_erase_at_endEPd = comdat any

$_ZNSt6vectorIdSaIdEE14_M_fill_insertEN9__gnu_cxx17__normal_iteratorIPdS1_EEmRKd = comdat any

$_ZN9__gnu_cxxmiIPdSt6vectorIdSaIdEEEENS_17__normal_iteratorIT_T0_E15difference_typeERKS8_SB_ = comdat any

$_ZSt22__uninitialized_move_aIPdS0_SaIdEET0_T_S3_S2_RT1_ = comdat any

$_ZNSt12_Vector_baseIdSaIdEE19_M_get_Tp_allocatorEv = comdat any

$_ZSt13copy_backwardIPdS0_ET0_T_S2_S1_ = comdat any

$_ZNK9__gnu_cxx17__normal_iteratorIPdSt6vectorIdSaIdEEE4baseEv = comdat any

$_ZSt4fillIPddEvT_S1_RKT0_ = comdat any

$_ZSt24__uninitialized_fill_n_aIPdmddET_S1_T0_RKT1_RSaIT2_E = comdat any

$_ZNKSt6vectorIdSaIdEE12_M_check_lenEmPKc = comdat any

$_ZNSt6vectorIdSaIdEE5beginEv = comdat any

$_ZNSt12_Vector_baseIdSaIdEE11_M_allocateEm = comdat any

$_ZSt34__uninitialized_move_if_noexcept_aIPdS0_SaIdEET0_T_S3_S2_RT1_ = comdat any

$_ZSt8_DestroyIPddEvT_S1_RSaIT0_E = comdat any

$_ZNSt12_Vector_baseIdSaIdEE13_M_deallocateEPdm = comdat any

$__clang_call_terminate = comdat any

$_ZSt22__uninitialized_copy_aIPdS0_dET0_T_S2_S1_RSaIT1_E = comdat any

$_ZSt18uninitialized_copyIPdS0_ET0_T_S2_S1_ = comdat any

$_ZNSt20__uninitialized_copyILb1EE13__uninit_copyIPdS2_EET0_T_S4_S3_ = comdat any

$_ZSt4copyIPdS0_ET0_T_S2_S1_ = comdat any

$_ZSt14__copy_move_a2ILb0EPdS0_ET1_T0_S2_S1_ = comdat any

$_ZSt12__miter_baseIPdENSt11_Miter_baseIT_E13iterator_typeES2_ = comdat any

$_ZSt13__copy_move_aILb0EPdS0_ET1_T0_S2_S1_ = comdat any

$_ZSt12__niter_baseIPdENSt11_Niter_baseIT_E13iterator_typeES2_ = comdat any

$_ZNSt11__copy_moveILb0ELb1ESt26random_access_iterator_tagE8__copy_mIdEEPT_PKS3_S6_S4_ = comdat any

$_ZNSt10_Iter_baseIPdLb0EE7_S_baseES0_ = comdat any

$_ZSt23__copy_move_backward_a2ILb0EPdS0_ET1_T0_S2_S1_ = comdat any

$_ZSt22__copy_move_backward_aILb0EPdS0_ET1_T0_S2_S1_ = comdat any

$_ZNSt20__copy_move_backwardILb0ELb1ESt26random_access_iterator_tagE13__copy_move_bIdEEPT_PKS3_S6_S4_ = comdat any

$_ZSt8__fill_aIPddEN9__gnu_cxx11__enable_ifIXsr11__is_scalarIT0_EE7__valueEvE6__typeET_S6_RKS3_ = comdat any

$_ZSt20uninitialized_fill_nIPdmdET_S1_T0_RKT1_ = comdat any

$_ZNSt22__uninitialized_fill_nILb1EE15__uninit_fill_nIPdmdEET_S3_T0_RKT1_ = comdat any

$_ZSt6fill_nIPdmdET_S1_T0_RKT1_ = comdat any

$_ZSt10__fill_n_aIPdmdEN9__gnu_cxx11__enable_ifIXsr11__is_scalarIT1_EE7__valueET_E6__typeES4_T0_RKS3_ = comdat any

$_ZNKSt6vectorIdSaIdEE8max_sizeEv = comdat any

$_ZSt3maxImERKT_S2_S2_ = comdat any

$_ZN9__gnu_cxx14__alloc_traitsISaIdEE8max_sizeERKS1_ = comdat any

$_ZNKSt12_Vector_baseIdSaIdEE19_M_get_Tp_allocatorEv = comdat any

$_ZNK9__gnu_cxx13new_allocatorIdE8max_sizeEv = comdat any

$_ZN9__gnu_cxx17__normal_iteratorIPdSt6vectorIdSaIdEEEC2ERKS1_ = comdat any

$_ZN9__gnu_cxx14__alloc_traitsISaIdEE8allocateERS1_m = comdat any

$_ZN9__gnu_cxx13new_allocatorIdE8allocateEmPKv = comdat any

$_ZSt8_DestroyIPdEvT_S1_ = comdat any

$_ZNSt12_Destroy_auxILb1EE9__destroyIPdEEvT_S3_ = comdat any

$_ZN9__gnu_cxx14__alloc_traitsISaIdEE10deallocateERS1_Pdm = comdat any

$_ZN9__gnu_cxx13new_allocatorIdE10deallocateEPdm = comdat any

$_ZNSt6vectorIdSaIdEE5clearEv = comdat any

$_ZN6Domain5sizeYEv = comdat any

$_ZN6Domain5sizeZEv = comdat any

$_ZN6Domain17AllocateGradientsEii = comdat any

$_ZN6Domain19DeallocateGradientsEv = comdat any

$_ZNK6Domain5qstopEv = comdat any

$_ZN6Domain9delx_zetaEi = comdat any

$_ZN6Domain9delv_zetaEi = comdat any

$_ZN6Domain7delx_xiEi = comdat any

$_ZN6Domain7delv_xiEi = comdat any

$_ZN6Domain8delx_etaEi = comdat any

$_ZN6Domain8delv_etaEi = comdat any

$_ZN6Domain6numRegEv = comdat any

$_ZN6Domain11regElemSizeEi = comdat any

$_ZNK6Domain18monoq_limiter_multEv = comdat any

$_ZNK6Domain15monoq_max_slopeEv = comdat any

$_ZNK6Domain9qlc_monoqEv = comdat any

$_ZNK6Domain9qqc_monoqEv = comdat any

$_ZN6Domain11regElemlistEii = comdat any

$_ZN6Domain6elemBCEi = comdat any

$_ZN6Domain4lximEi = comdat any

$_ZN6Domain4lxipEi = comdat any

$_ZN6Domain5letamEi = comdat any

$_ZN6Domain5letapEi = comdat any

$_ZN6Domain6lzetamEi = comdat any

$_ZN6Domain6lzetapEi = comdat any

$_ZN6Domain2qqEi = comdat any

$_ZN6Domain2qlEi = comdat any

$_ZNK6Domain7eosvminEv = comdat any

$_ZNK6Domain7eosvmaxEv = comdat any

$_ZN6Domain11regElemlistEi = comdat any

$_ZN6Domain4costEv = comdat any

$_ZNK6Domain5e_cutEv = comdat any

$_ZNK6Domain5p_cutEv = comdat any

$_ZNK6Domain5ss4o3Ev = comdat any

$_ZNK6Domain5q_cutEv = comdat any

$_ZNK6Domain4pminEv = comdat any

$_ZNK6Domain4eminEv = comdat any

$_ZNK6Domain7refdensEv = comdat any

$_ZN6Domain1eEi = comdat any

$_ZNK6Domain3qqcEv = comdat any

$_ZNK6Domain7dvovmaxEv = comdat any

@_ZStL8__ioinit = internal global %"class.std::ios_base::Init" zeroinitializer, align 1
@__dso_handle = external global i8
@.str = private unnamed_addr constant [55 x i8] c"Running problem size %d^3 per domain until completion\0A\00", align 1
@.str.1 = private unnamed_addr constant [20 x i8] c"Num processors: %d\0A\00", align 1
@.str.2 = private unnamed_addr constant [33 x i8] c"Total number of elements: %lld\0A\0A\00", align 1
@.str.3 = private unnamed_addr constant [39 x i8] c"To run other sizes, use -s <integer>.\0A\00", align 1
@.str.4 = private unnamed_addr constant [56 x i8] c"To run a fixed number of iterations, use -i <integer>.\0A\00", align 1
@.str.5 = private unnamed_addr constant [62 x i8] c"To run a more or less balanced region set, use -b <integer>.\0A\00", align 1
@.str.6 = private unnamed_addr constant [60 x i8] c"To change the relative costs of regions, use -c <integer>.\0A\00", align 1
@.str.7 = private unnamed_addr constant [31 x i8] c"To print out progress, use -p\0A\00", align 1
@.str.8 = private unnamed_addr constant [43 x i8] c"To write an output file for VisIt, use -v\0A\00", align 1
@.str.9 = private unnamed_addr constant [33 x i8] c"See help (-h) for more options\0A\0A\00", align 1
@.str.10 = private unnamed_addr constant [30 x i8] c"cycle = %d, time = %e, dt=%e\0A\00", align 1
@.str.11 = private unnamed_addr constant [23 x i8] c"vector::_M_fill_insert\00", align 1
@stderr = external global %struct._IO_FILE*, align 8
@.str.12 = private unnamed_addr constant [31 x i8] c"Error in switch at %s line %d\0A\00", align 1
@.str.13 = private unnamed_addr constant [10 x i8] c"lulesh.cc\00", align 1
@llvm.global_ctors = appending global [1 x { i32, void ()*, i8* }] [{ i32, void ()*, i8* } { i32 65535, void ()* @_GLOBAL__sub_I_lulesh.cc, i8* null }]

; Function Attrs: uwtable
define internal void @__cxx_global_var_init() #0 section ".text.startup" !dbg !1149 {
  call void @_ZNSt8ios_base4InitC1Ev(%"class.std::ios_base::Init"* @_ZStL8__ioinit), !dbg !1858
  %1 = call i32 @__cxa_atexit(void (i8*)* bitcast (void (%"class.std::ios_base::Init"*)* @_ZNSt8ios_base4InitD1Ev to void (i8*)*), i8* getelementptr inbounds (%"class.std::ios_base::Init", %"class.std::ios_base::Init"* @_ZStL8__ioinit, i32 0, i32 0), i8* @__dso_handle) #2, !dbg !1859
  ret void, !dbg !1858
}

declare void @_ZNSt8ios_base4InitC1Ev(%"class.std::ios_base::Init"*) #1

declare void @_ZNSt8ios_base4InitD1Ev(%"class.std::ios_base::Init"*) #1

; Function Attrs: nounwind
declare i32 @__cxa_atexit(void (i8*)*, i8*, i8*) #2

; Function Attrs: uwtable
define double @_Z14CalcElemVolumePKdS0_S0_(double* %x, double* %y, double* %z) #0 !dbg !1153 {
  %1 = alloca double*, align 8
  %2 = alloca double*, align 8
  %3 = alloca double*, align 8
  store double* %x, double** %1, align 8
  call void @llvm.dbg.declare(metadata double** %1, metadata !1861, metadata !1862), !dbg !1863
  store double* %y, double** %2, align 8
  call void @llvm.dbg.declare(metadata double** %2, metadata !1864, metadata !1862), !dbg !1865
  store double* %z, double** %3, align 8
  call void @llvm.dbg.declare(metadata double** %3, metadata !1866, metadata !1862), !dbg !1867
  %4 = load double*, double** %1, align 8, !dbg !1868
  %5 = getelementptr inbounds double, double* %4, i64 0, !dbg !1868
  %6 = load double, double* %5, align 8, !dbg !1868
  %7 = load double*, double** %1, align 8, !dbg !1869
  %8 = getelementptr inbounds double, double* %7, i64 1, !dbg !1869
  %9 = load double, double* %8, align 8, !dbg !1869
  %10 = load double*, double** %1, align 8, !dbg !1870
  %11 = getelementptr inbounds double, double* %10, i64 2, !dbg !1870
  %12 = load double, double* %11, align 8, !dbg !1870
  %13 = load double*, double** %1, align 8, !dbg !1871
  %14 = getelementptr inbounds double, double* %13, i64 3, !dbg !1871
  %15 = load double, double* %14, align 8, !dbg !1871
  %16 = load double*, double** %1, align 8, !dbg !1872
  %17 = getelementptr inbounds double, double* %16, i64 4, !dbg !1872
  %18 = load double, double* %17, align 8, !dbg !1872
  %19 = load double*, double** %1, align 8, !dbg !1873
  %20 = getelementptr inbounds double, double* %19, i64 5, !dbg !1873
  %21 = load double, double* %20, align 8, !dbg !1873
  %22 = load double*, double** %1, align 8, !dbg !1874
  %23 = getelementptr inbounds double, double* %22, i64 6, !dbg !1874
  %24 = load double, double* %23, align 8, !dbg !1874
  %25 = load double*, double** %1, align 8, !dbg !1875
  %26 = getelementptr inbounds double, double* %25, i64 7, !dbg !1875
  %27 = load double, double* %26, align 8, !dbg !1875
  %28 = load double*, double** %2, align 8, !dbg !1876
  %29 = getelementptr inbounds double, double* %28, i64 0, !dbg !1876
  %30 = load double, double* %29, align 8, !dbg !1876
  %31 = load double*, double** %2, align 8, !dbg !1877
  %32 = getelementptr inbounds double, double* %31, i64 1, !dbg !1877
  %33 = load double, double* %32, align 8, !dbg !1877
  %34 = load double*, double** %2, align 8, !dbg !1878
  %35 = getelementptr inbounds double, double* %34, i64 2, !dbg !1878
  %36 = load double, double* %35, align 8, !dbg !1878
  %37 = load double*, double** %2, align 8, !dbg !1879
  %38 = getelementptr inbounds double, double* %37, i64 3, !dbg !1879
  %39 = load double, double* %38, align 8, !dbg !1879
  %40 = load double*, double** %2, align 8, !dbg !1880
  %41 = getelementptr inbounds double, double* %40, i64 4, !dbg !1880
  %42 = load double, double* %41, align 8, !dbg !1880
  %43 = load double*, double** %2, align 8, !dbg !1881
  %44 = getelementptr inbounds double, double* %43, i64 5, !dbg !1881
  %45 = load double, double* %44, align 8, !dbg !1881
  %46 = load double*, double** %2, align 8, !dbg !1882
  %47 = getelementptr inbounds double, double* %46, i64 6, !dbg !1882
  %48 = load double, double* %47, align 8, !dbg !1882
  %49 = load double*, double** %2, align 8, !dbg !1883
  %50 = getelementptr inbounds double, double* %49, i64 7, !dbg !1883
  %51 = load double, double* %50, align 8, !dbg !1883
  %52 = load double*, double** %3, align 8, !dbg !1884
  %53 = getelementptr inbounds double, double* %52, i64 0, !dbg !1884
  %54 = load double, double* %53, align 8, !dbg !1884
  %55 = load double*, double** %3, align 8, !dbg !1885
  %56 = getelementptr inbounds double, double* %55, i64 1, !dbg !1885
  %57 = load double, double* %56, align 8, !dbg !1885
  %58 = load double*, double** %3, align 8, !dbg !1886
  %59 = getelementptr inbounds double, double* %58, i64 2, !dbg !1886
  %60 = load double, double* %59, align 8, !dbg !1886
  %61 = load double*, double** %3, align 8, !dbg !1887
  %62 = getelementptr inbounds double, double* %61, i64 3, !dbg !1887
  %63 = load double, double* %62, align 8, !dbg !1887
  %64 = load double*, double** %3, align 8, !dbg !1888
  %65 = getelementptr inbounds double, double* %64, i64 4, !dbg !1888
  %66 = load double, double* %65, align 8, !dbg !1888
  %67 = load double*, double** %3, align 8, !dbg !1889
  %68 = getelementptr inbounds double, double* %67, i64 5, !dbg !1889
  %69 = load double, double* %68, align 8, !dbg !1889
  %70 = load double*, double** %3, align 8, !dbg !1890
  %71 = getelementptr inbounds double, double* %70, i64 6, !dbg !1890
  %72 = load double, double* %71, align 8, !dbg !1890
  %73 = load double*, double** %3, align 8, !dbg !1891
  %74 = getelementptr inbounds double, double* %73, i64 7, !dbg !1891
  %75 = load double, double* %74, align 8, !dbg !1891
  %76 = call double @_ZL14CalcElemVolumedddddddddddddddddddddddd(double %6, double %9, double %12, double %15, double %18, double %21, double %24, double %27, double %30, double %33, double %36, double %39, double %42, double %45, double %48, double %51, double %54, double %57, double %60, double %63, double %66, double %69, double %72, double %75), !dbg !1892
  ret double %76, !dbg !1893
}

; Function Attrs: nounwind readnone
declare void @llvm.dbg.declare(metadata, metadata, metadata) #3

; Function Attrs: inlinehint nounwind uwtable
define internal double @_ZL14CalcElemVolumedddddddddddddddddddddddd(double %x0, double %x1, double %x2, double %x3, double %x4, double %x5, double %x6, double %x7, double %y0, double %y1, double %y2, double %y3, double %y4, double %y5, double %y6, double %y7, double %z0, double %z1, double %z2, double %z3, double %z4, double %z5, double %z6, double %z7) #4 !dbg !1167 {
  %1 = alloca double, align 8
  %2 = alloca double, align 8
  %3 = alloca double, align 8
  %4 = alloca double, align 8
  %5 = alloca double, align 8
  %6 = alloca double, align 8
  %7 = alloca double, align 8
  %8 = alloca double, align 8
  %9 = alloca double, align 8
  %10 = alloca double, align 8
  %11 = alloca double, align 8
  %12 = alloca double, align 8
  %13 = alloca double, align 8
  %14 = alloca double, align 8
  %15 = alloca double, align 8
  %16 = alloca double, align 8
  %17 = alloca double, align 8
  %18 = alloca double, align 8
  %19 = alloca double, align 8
  %20 = alloca double, align 8
  %21 = alloca double, align 8
  %22 = alloca double, align 8
  %23 = alloca double, align 8
  %24 = alloca double, align 8
  %twelveth = alloca double, align 8
  %dx61 = alloca double, align 8
  %dy61 = alloca double, align 8
  %dz61 = alloca double, align 8
  %dx70 = alloca double, align 8
  %dy70 = alloca double, align 8
  %dz70 = alloca double, align 8
  %dx63 = alloca double, align 8
  %dy63 = alloca double, align 8
  %dz63 = alloca double, align 8
  %dx20 = alloca double, align 8
  %dy20 = alloca double, align 8
  %dz20 = alloca double, align 8
  %dx50 = alloca double, align 8
  %dy50 = alloca double, align 8
  %dz50 = alloca double, align 8
  %dx64 = alloca double, align 8
  %dy64 = alloca double, align 8
  %dz64 = alloca double, align 8
  %dx31 = alloca double, align 8
  %dy31 = alloca double, align 8
  %dz31 = alloca double, align 8
  %dx72 = alloca double, align 8
  %dy72 = alloca double, align 8
  %dz72 = alloca double, align 8
  %dx43 = alloca double, align 8
  %dy43 = alloca double, align 8
  %dz43 = alloca double, align 8
  %dx57 = alloca double, align 8
  %dy57 = alloca double, align 8
  %dz57 = alloca double, align 8
  %dx14 = alloca double, align 8
  %dy14 = alloca double, align 8
  %dz14 = alloca double, align 8
  %dx25 = alloca double, align 8
  %dy25 = alloca double, align 8
  %dz25 = alloca double, align 8
  %volume = alloca double, align 8
  store double %x0, double* %1, align 8
  call void @llvm.dbg.declare(metadata double* %1, metadata !1894, metadata !1862), !dbg !1895
  store double %x1, double* %2, align 8
  call void @llvm.dbg.declare(metadata double* %2, metadata !1896, metadata !1862), !dbg !1897
  store double %x2, double* %3, align 8
  call void @llvm.dbg.declare(metadata double* %3, metadata !1898, metadata !1862), !dbg !1899
  store double %x3, double* %4, align 8
  call void @llvm.dbg.declare(metadata double* %4, metadata !1900, metadata !1862), !dbg !1901
  store double %x4, double* %5, align 8
  call void @llvm.dbg.declare(metadata double* %5, metadata !1902, metadata !1862), !dbg !1903
  store double %x5, double* %6, align 8
  call void @llvm.dbg.declare(metadata double* %6, metadata !1904, metadata !1862), !dbg !1905
  store double %x6, double* %7, align 8
  call void @llvm.dbg.declare(metadata double* %7, metadata !1906, metadata !1862), !dbg !1907
  store double %x7, double* %8, align 8
  call void @llvm.dbg.declare(metadata double* %8, metadata !1908, metadata !1862), !dbg !1909
  store double %y0, double* %9, align 8
  call void @llvm.dbg.declare(metadata double* %9, metadata !1910, metadata !1862), !dbg !1911
  store double %y1, double* %10, align 8
  call void @llvm.dbg.declare(metadata double* %10, metadata !1912, metadata !1862), !dbg !1913
  store double %y2, double* %11, align 8
  call void @llvm.dbg.declare(metadata double* %11, metadata !1914, metadata !1862), !dbg !1915
  store double %y3, double* %12, align 8
  call void @llvm.dbg.declare(metadata double* %12, metadata !1916, metadata !1862), !dbg !1917
  store double %y4, double* %13, align 8
  call void @llvm.dbg.declare(metadata double* %13, metadata !1918, metadata !1862), !dbg !1919
  store double %y5, double* %14, align 8
  call void @llvm.dbg.declare(metadata double* %14, metadata !1920, metadata !1862), !dbg !1921
  store double %y6, double* %15, align 8
  call void @llvm.dbg.declare(metadata double* %15, metadata !1922, metadata !1862), !dbg !1923
  store double %y7, double* %16, align 8
  call void @llvm.dbg.declare(metadata double* %16, metadata !1924, metadata !1862), !dbg !1925
  store double %z0, double* %17, align 8
  call void @llvm.dbg.declare(metadata double* %17, metadata !1926, metadata !1862), !dbg !1927
  store double %z1, double* %18, align 8
  call void @llvm.dbg.declare(metadata double* %18, metadata !1928, metadata !1862), !dbg !1929
  store double %z2, double* %19, align 8
  call void @llvm.dbg.declare(metadata double* %19, metadata !1930, metadata !1862), !dbg !1931
  store double %z3, double* %20, align 8
  call void @llvm.dbg.declare(metadata double* %20, metadata !1932, metadata !1862), !dbg !1933
  store double %z4, double* %21, align 8
  call void @llvm.dbg.declare(metadata double* %21, metadata !1934, metadata !1862), !dbg !1935
  store double %z5, double* %22, align 8
  call void @llvm.dbg.declare(metadata double* %22, metadata !1936, metadata !1862), !dbg !1937
  store double %z6, double* %23, align 8
  call void @llvm.dbg.declare(metadata double* %23, metadata !1938, metadata !1862), !dbg !1939
  store double %z7, double* %24, align 8
  call void @llvm.dbg.declare(metadata double* %24, metadata !1940, metadata !1862), !dbg !1941
  call void @llvm.dbg.declare(metadata double* %twelveth, metadata !1942, metadata !1862), !dbg !1943
  store double 0x3FB5555555555555, double* %twelveth, align 8, !dbg !1943
  call void @llvm.dbg.declare(metadata double* %dx61, metadata !1944, metadata !1862), !dbg !1945
  %25 = load double, double* %7, align 8, !dbg !1946
  %26 = load double, double* %2, align 8, !dbg !1947
  %27 = fsub double %25, %26, !dbg !1948
  store double %27, double* %dx61, align 8, !dbg !1945
  call void @llvm.dbg.declare(metadata double* %dy61, metadata !1949, metadata !1862), !dbg !1950
  %28 = load double, double* %15, align 8, !dbg !1951
  %29 = load double, double* %10, align 8, !dbg !1952
  %30 = fsub double %28, %29, !dbg !1953
  store double %30, double* %dy61, align 8, !dbg !1950
  call void @llvm.dbg.declare(metadata double* %dz61, metadata !1954, metadata !1862), !dbg !1955
  %31 = load double, double* %23, align 8, !dbg !1956
  %32 = load double, double* %18, align 8, !dbg !1957
  %33 = fsub double %31, %32, !dbg !1958
  store double %33, double* %dz61, align 8, !dbg !1955
  call void @llvm.dbg.declare(metadata double* %dx70, metadata !1959, metadata !1862), !dbg !1960
  %34 = load double, double* %8, align 8, !dbg !1961
  %35 = load double, double* %1, align 8, !dbg !1962
  %36 = fsub double %34, %35, !dbg !1963
  store double %36, double* %dx70, align 8, !dbg !1960
  call void @llvm.dbg.declare(metadata double* %dy70, metadata !1964, metadata !1862), !dbg !1965
  %37 = load double, double* %16, align 8, !dbg !1966
  %38 = load double, double* %9, align 8, !dbg !1967
  %39 = fsub double %37, %38, !dbg !1968
  store double %39, double* %dy70, align 8, !dbg !1965
  call void @llvm.dbg.declare(metadata double* %dz70, metadata !1969, metadata !1862), !dbg !1970
  %40 = load double, double* %24, align 8, !dbg !1971
  %41 = load double, double* %17, align 8, !dbg !1972
  %42 = fsub double %40, %41, !dbg !1973
  store double %42, double* %dz70, align 8, !dbg !1970
  call void @llvm.dbg.declare(metadata double* %dx63, metadata !1974, metadata !1862), !dbg !1975
  %43 = load double, double* %7, align 8, !dbg !1976
  %44 = load double, double* %4, align 8, !dbg !1977
  %45 = fsub double %43, %44, !dbg !1978
  store double %45, double* %dx63, align 8, !dbg !1975
  call void @llvm.dbg.declare(metadata double* %dy63, metadata !1979, metadata !1862), !dbg !1980
  %46 = load double, double* %15, align 8, !dbg !1981
  %47 = load double, double* %12, align 8, !dbg !1982
  %48 = fsub double %46, %47, !dbg !1983
  store double %48, double* %dy63, align 8, !dbg !1980
  call void @llvm.dbg.declare(metadata double* %dz63, metadata !1984, metadata !1862), !dbg !1985
  %49 = load double, double* %23, align 8, !dbg !1986
  %50 = load double, double* %20, align 8, !dbg !1987
  %51 = fsub double %49, %50, !dbg !1988
  store double %51, double* %dz63, align 8, !dbg !1985
  call void @llvm.dbg.declare(metadata double* %dx20, metadata !1989, metadata !1862), !dbg !1990
  %52 = load double, double* %3, align 8, !dbg !1991
  %53 = load double, double* %1, align 8, !dbg !1992
  %54 = fsub double %52, %53, !dbg !1993
  store double %54, double* %dx20, align 8, !dbg !1990
  call void @llvm.dbg.declare(metadata double* %dy20, metadata !1994, metadata !1862), !dbg !1995
  %55 = load double, double* %11, align 8, !dbg !1996
  %56 = load double, double* %9, align 8, !dbg !1997
  %57 = fsub double %55, %56, !dbg !1998
  store double %57, double* %dy20, align 8, !dbg !1995
  call void @llvm.dbg.declare(metadata double* %dz20, metadata !1999, metadata !1862), !dbg !2000
  %58 = load double, double* %19, align 8, !dbg !2001
  %59 = load double, double* %17, align 8, !dbg !2002
  %60 = fsub double %58, %59, !dbg !2003
  store double %60, double* %dz20, align 8, !dbg !2000
  call void @llvm.dbg.declare(metadata double* %dx50, metadata !2004, metadata !1862), !dbg !2005
  %61 = load double, double* %6, align 8, !dbg !2006
  %62 = load double, double* %1, align 8, !dbg !2007
  %63 = fsub double %61, %62, !dbg !2008
  store double %63, double* %dx50, align 8, !dbg !2005
  call void @llvm.dbg.declare(metadata double* %dy50, metadata !2009, metadata !1862), !dbg !2010
  %64 = load double, double* %14, align 8, !dbg !2011
  %65 = load double, double* %9, align 8, !dbg !2012
  %66 = fsub double %64, %65, !dbg !2013
  store double %66, double* %dy50, align 8, !dbg !2010
  call void @llvm.dbg.declare(metadata double* %dz50, metadata !2014, metadata !1862), !dbg !2015
  %67 = load double, double* %22, align 8, !dbg !2016
  %68 = load double, double* %17, align 8, !dbg !2017
  %69 = fsub double %67, %68, !dbg !2018
  store double %69, double* %dz50, align 8, !dbg !2015
  call void @llvm.dbg.declare(metadata double* %dx64, metadata !2019, metadata !1862), !dbg !2020
  %70 = load double, double* %7, align 8, !dbg !2021
  %71 = load double, double* %5, align 8, !dbg !2022
  %72 = fsub double %70, %71, !dbg !2023
  store double %72, double* %dx64, align 8, !dbg !2020
  call void @llvm.dbg.declare(metadata double* %dy64, metadata !2024, metadata !1862), !dbg !2025
  %73 = load double, double* %15, align 8, !dbg !2026
  %74 = load double, double* %13, align 8, !dbg !2027
  %75 = fsub double %73, %74, !dbg !2028
  store double %75, double* %dy64, align 8, !dbg !2025
  call void @llvm.dbg.declare(metadata double* %dz64, metadata !2029, metadata !1862), !dbg !2030
  %76 = load double, double* %23, align 8, !dbg !2031
  %77 = load double, double* %21, align 8, !dbg !2032
  %78 = fsub double %76, %77, !dbg !2033
  store double %78, double* %dz64, align 8, !dbg !2030
  call void @llvm.dbg.declare(metadata double* %dx31, metadata !2034, metadata !1862), !dbg !2035
  %79 = load double, double* %4, align 8, !dbg !2036
  %80 = load double, double* %2, align 8, !dbg !2037
  %81 = fsub double %79, %80, !dbg !2038
  store double %81, double* %dx31, align 8, !dbg !2035
  call void @llvm.dbg.declare(metadata double* %dy31, metadata !2039, metadata !1862), !dbg !2040
  %82 = load double, double* %12, align 8, !dbg !2041
  %83 = load double, double* %10, align 8, !dbg !2042
  %84 = fsub double %82, %83, !dbg !2043
  store double %84, double* %dy31, align 8, !dbg !2040
  call void @llvm.dbg.declare(metadata double* %dz31, metadata !2044, metadata !1862), !dbg !2045
  %85 = load double, double* %20, align 8, !dbg !2046
  %86 = load double, double* %18, align 8, !dbg !2047
  %87 = fsub double %85, %86, !dbg !2048
  store double %87, double* %dz31, align 8, !dbg !2045
  call void @llvm.dbg.declare(metadata double* %dx72, metadata !2049, metadata !1862), !dbg !2050
  %88 = load double, double* %8, align 8, !dbg !2051
  %89 = load double, double* %3, align 8, !dbg !2052
  %90 = fsub double %88, %89, !dbg !2053
  store double %90, double* %dx72, align 8, !dbg !2050
  call void @llvm.dbg.declare(metadata double* %dy72, metadata !2054, metadata !1862), !dbg !2055
  %91 = load double, double* %16, align 8, !dbg !2056
  %92 = load double, double* %11, align 8, !dbg !2057
  %93 = fsub double %91, %92, !dbg !2058
  store double %93, double* %dy72, align 8, !dbg !2055
  call void @llvm.dbg.declare(metadata double* %dz72, metadata !2059, metadata !1862), !dbg !2060
  %94 = load double, double* %24, align 8, !dbg !2061
  %95 = load double, double* %19, align 8, !dbg !2062
  %96 = fsub double %94, %95, !dbg !2063
  store double %96, double* %dz72, align 8, !dbg !2060
  call void @llvm.dbg.declare(metadata double* %dx43, metadata !2064, metadata !1862), !dbg !2065
  %97 = load double, double* %5, align 8, !dbg !2066
  %98 = load double, double* %4, align 8, !dbg !2067
  %99 = fsub double %97, %98, !dbg !2068
  store double %99, double* %dx43, align 8, !dbg !2065
  call void @llvm.dbg.declare(metadata double* %dy43, metadata !2069, metadata !1862), !dbg !2070
  %100 = load double, double* %13, align 8, !dbg !2071
  %101 = load double, double* %12, align 8, !dbg !2072
  %102 = fsub double %100, %101, !dbg !2073
  store double %102, double* %dy43, align 8, !dbg !2070
  call void @llvm.dbg.declare(metadata double* %dz43, metadata !2074, metadata !1862), !dbg !2075
  %103 = load double, double* %21, align 8, !dbg !2076
  %104 = load double, double* %20, align 8, !dbg !2077
  %105 = fsub double %103, %104, !dbg !2078
  store double %105, double* %dz43, align 8, !dbg !2075
  call void @llvm.dbg.declare(metadata double* %dx57, metadata !2079, metadata !1862), !dbg !2080
  %106 = load double, double* %6, align 8, !dbg !2081
  %107 = load double, double* %8, align 8, !dbg !2082
  %108 = fsub double %106, %107, !dbg !2083
  store double %108, double* %dx57, align 8, !dbg !2080
  call void @llvm.dbg.declare(metadata double* %dy57, metadata !2084, metadata !1862), !dbg !2085
  %109 = load double, double* %14, align 8, !dbg !2086
  %110 = load double, double* %16, align 8, !dbg !2087
  %111 = fsub double %109, %110, !dbg !2088
  store double %111, double* %dy57, align 8, !dbg !2085
  call void @llvm.dbg.declare(metadata double* %dz57, metadata !2089, metadata !1862), !dbg !2090
  %112 = load double, double* %22, align 8, !dbg !2091
  %113 = load double, double* %24, align 8, !dbg !2092
  %114 = fsub double %112, %113, !dbg !2093
  store double %114, double* %dz57, align 8, !dbg !2090
  call void @llvm.dbg.declare(metadata double* %dx14, metadata !2094, metadata !1862), !dbg !2095
  %115 = load double, double* %2, align 8, !dbg !2096
  %116 = load double, double* %5, align 8, !dbg !2097
  %117 = fsub double %115, %116, !dbg !2098
  store double %117, double* %dx14, align 8, !dbg !2095
  call void @llvm.dbg.declare(metadata double* %dy14, metadata !2099, metadata !1862), !dbg !2100
  %118 = load double, double* %10, align 8, !dbg !2101
  %119 = load double, double* %13, align 8, !dbg !2102
  %120 = fsub double %118, %119, !dbg !2103
  store double %120, double* %dy14, align 8, !dbg !2100
  call void @llvm.dbg.declare(metadata double* %dz14, metadata !2104, metadata !1862), !dbg !2105
  %121 = load double, double* %18, align 8, !dbg !2106
  %122 = load double, double* %21, align 8, !dbg !2107
  %123 = fsub double %121, %122, !dbg !2108
  store double %123, double* %dz14, align 8, !dbg !2105
  call void @llvm.dbg.declare(metadata double* %dx25, metadata !2109, metadata !1862), !dbg !2110
  %124 = load double, double* %3, align 8, !dbg !2111
  %125 = load double, double* %6, align 8, !dbg !2112
  %126 = fsub double %124, %125, !dbg !2113
  store double %126, double* %dx25, align 8, !dbg !2110
  call void @llvm.dbg.declare(metadata double* %dy25, metadata !2114, metadata !1862), !dbg !2115
  %127 = load double, double* %11, align 8, !dbg !2116
  %128 = load double, double* %14, align 8, !dbg !2117
  %129 = fsub double %127, %128, !dbg !2118
  store double %129, double* %dy25, align 8, !dbg !2115
  call void @llvm.dbg.declare(metadata double* %dz25, metadata !2119, metadata !1862), !dbg !2120
  %130 = load double, double* %19, align 8, !dbg !2121
  %131 = load double, double* %22, align 8, !dbg !2122
  %132 = fsub double %130, %131, !dbg !2123
  store double %132, double* %dz25, align 8, !dbg !2120
  call void @llvm.dbg.declare(metadata double* %volume, metadata !2124, metadata !1862), !dbg !2125
  %133 = load double, double* %dx31, align 8, !dbg !2126
  %134 = load double, double* %dx72, align 8, !dbg !2126
  %135 = fadd double %133, %134, !dbg !2126
  %136 = load double, double* %dy63, align 8, !dbg !2126
  %137 = load double, double* %dz20, align 8, !dbg !2126
  %138 = fmul double %136, %137, !dbg !2126
  %139 = load double, double* %dy20, align 8, !dbg !2126
  %140 = load double, double* %dz63, align 8, !dbg !2126
  %141 = fmul double %139, %140, !dbg !2126
  %142 = fsub double %138, %141, !dbg !2126
  %143 = fmul double %135, %142, !dbg !2126
  %144 = load double, double* %dy31, align 8, !dbg !2126
  %145 = load double, double* %dy72, align 8, !dbg !2126
  %146 = fadd double %144, %145, !dbg !2126
  %147 = load double, double* %dx20, align 8, !dbg !2126
  %148 = load double, double* %dz63, align 8, !dbg !2126
  %149 = fmul double %147, %148, !dbg !2126
  %150 = load double, double* %dx63, align 8, !dbg !2126
  %151 = load double, double* %dz20, align 8, !dbg !2126
  %152 = fmul double %150, %151, !dbg !2126
  %153 = fsub double %149, %152, !dbg !2126
  %154 = fmul double %146, %153, !dbg !2126
  %155 = fadd double %143, %154, !dbg !2126
  %156 = load double, double* %dz31, align 8, !dbg !2126
  %157 = load double, double* %dz72, align 8, !dbg !2126
  %158 = fadd double %156, %157, !dbg !2126
  %159 = load double, double* %dx63, align 8, !dbg !2126
  %160 = load double, double* %dy20, align 8, !dbg !2126
  %161 = fmul double %159, %160, !dbg !2126
  %162 = load double, double* %dx20, align 8, !dbg !2126
  %163 = load double, double* %dy63, align 8, !dbg !2126
  %164 = fmul double %162, %163, !dbg !2126
  %165 = fsub double %161, %164, !dbg !2126
  %166 = fmul double %158, %165, !dbg !2126
  %167 = fadd double %155, %166, !dbg !2126
  %168 = load double, double* %dx43, align 8, !dbg !2127
  %169 = load double, double* %dx57, align 8, !dbg !2127
  %170 = fadd double %168, %169, !dbg !2127
  %171 = load double, double* %dy64, align 8, !dbg !2127
  %172 = load double, double* %dz70, align 8, !dbg !2127
  %173 = fmul double %171, %172, !dbg !2127
  %174 = load double, double* %dy70, align 8, !dbg !2127
  %175 = load double, double* %dz64, align 8, !dbg !2127
  %176 = fmul double %174, %175, !dbg !2127
  %177 = fsub double %173, %176, !dbg !2127
  %178 = fmul double %170, %177, !dbg !2127
  %179 = load double, double* %dy43, align 8, !dbg !2127
  %180 = load double, double* %dy57, align 8, !dbg !2127
  %181 = fadd double %179, %180, !dbg !2127
  %182 = load double, double* %dx70, align 8, !dbg !2127
  %183 = load double, double* %dz64, align 8, !dbg !2127
  %184 = fmul double %182, %183, !dbg !2127
  %185 = load double, double* %dx64, align 8, !dbg !2127
  %186 = load double, double* %dz70, align 8, !dbg !2127
  %187 = fmul double %185, %186, !dbg !2127
  %188 = fsub double %184, %187, !dbg !2127
  %189 = fmul double %181, %188, !dbg !2127
  %190 = fadd double %178, %189, !dbg !2127
  %191 = load double, double* %dz43, align 8, !dbg !2127
  %192 = load double, double* %dz57, align 8, !dbg !2127
  %193 = fadd double %191, %192, !dbg !2127
  %194 = load double, double* %dx64, align 8, !dbg !2127
  %195 = load double, double* %dy70, align 8, !dbg !2127
  %196 = fmul double %194, %195, !dbg !2127
  %197 = load double, double* %dx70, align 8, !dbg !2127
  %198 = load double, double* %dy64, align 8, !dbg !2127
  %199 = fmul double %197, %198, !dbg !2127
  %200 = fsub double %196, %199, !dbg !2127
  %201 = fmul double %193, %200, !dbg !2127
  %202 = fadd double %190, %201, !dbg !2127
  %203 = fadd double %167, %202, !dbg !2128
  %204 = load double, double* %dx14, align 8, !dbg !2129
  %205 = load double, double* %dx25, align 8, !dbg !2129
  %206 = fadd double %204, %205, !dbg !2129
  %207 = load double, double* %dy61, align 8, !dbg !2129
  %208 = load double, double* %dz50, align 8, !dbg !2129
  %209 = fmul double %207, %208, !dbg !2129
  %210 = load double, double* %dy50, align 8, !dbg !2129
  %211 = load double, double* %dz61, align 8, !dbg !2129
  %212 = fmul double %210, %211, !dbg !2129
  %213 = fsub double %209, %212, !dbg !2129
  %214 = fmul double %206, %213, !dbg !2129
  %215 = load double, double* %dy14, align 8, !dbg !2129
  %216 = load double, double* %dy25, align 8, !dbg !2129
  %217 = fadd double %215, %216, !dbg !2129
  %218 = load double, double* %dx50, align 8, !dbg !2129
  %219 = load double, double* %dz61, align 8, !dbg !2129
  %220 = fmul double %218, %219, !dbg !2129
  %221 = load double, double* %dx61, align 8, !dbg !2129
  %222 = load double, double* %dz50, align 8, !dbg !2129
  %223 = fmul double %221, %222, !dbg !2129
  %224 = fsub double %220, %223, !dbg !2129
  %225 = fmul double %217, %224, !dbg !2129
  %226 = fadd double %214, %225, !dbg !2129
  %227 = load double, double* %dz14, align 8, !dbg !2129
  %228 = load double, double* %dz25, align 8, !dbg !2129
  %229 = fadd double %227, %228, !dbg !2129
  %230 = load double, double* %dx61, align 8, !dbg !2129
  %231 = load double, double* %dy50, align 8, !dbg !2129
  %232 = fmul double %230, %231, !dbg !2129
  %233 = load double, double* %dx50, align 8, !dbg !2129
  %234 = load double, double* %dy61, align 8, !dbg !2129
  %235 = fmul double %233, %234, !dbg !2129
  %236 = fsub double %232, %235, !dbg !2129
  %237 = fmul double %229, %236, !dbg !2129
  %238 = fadd double %226, %237, !dbg !2129
  %239 = fadd double %203, %238, !dbg !2130
  store double %239, double* %volume, align 8, !dbg !2125
  %240 = load double, double* %twelveth, align 8, !dbg !2131
  %241 = load double, double* %volume, align 8, !dbg !2132
  %242 = fmul double %241, %240, !dbg !2132
  store double %242, double* %volume, align 8, !dbg !2132
  %243 = load double, double* %volume, align 8, !dbg !2133
  ret double %243, !dbg !2134
}

; Function Attrs: uwtable
define void @_Z22CalcKinematicsForElemsR6DomainPddi(%class.Domain* dereferenceable(1456) %domain, double* %vnew, double %deltaTime, i32 %numElem) #0 !dbg !1157 {
  %1 = alloca %class.Domain*, align 8
  %2 = alloca double*, align 8
  %3 = alloca double, align 8
  %4 = alloca i32, align 4
  %k = alloca i32, align 4
  %B = alloca [3 x [8 x double]], align 16
  %D = alloca [6 x double], align 16
  %x_local = alloca [8 x double], align 16
  %y_local = alloca [8 x double], align 16
  %z_local = alloca [8 x double], align 16
  %xd_local = alloca [8 x double], align 16
  %yd_local = alloca [8 x double], align 16
  %zd_local = alloca [8 x double], align 16
  %detJ = alloca double, align 8
  %volume = alloca double, align 8
  %relativeVolume = alloca double, align 8
  %elemToNode = alloca i32*, align 8
  %lnode = alloca i32, align 4
  %gnode = alloca i32, align 4
  %dt2 = alloca double, align 8
  %j = alloca i32, align 4
  store %class.Domain* %domain, %class.Domain** %1, align 8
  call void @llvm.dbg.declare(metadata %class.Domain** %1, metadata !2135, metadata !1862), !dbg !2136
  store double* %vnew, double** %2, align 8
  call void @llvm.dbg.declare(metadata double** %2, metadata !2137, metadata !1862), !dbg !2138
  store double %deltaTime, double* %3, align 8
  call void @llvm.dbg.declare(metadata double* %3, metadata !2139, metadata !1862), !dbg !2140
  store i32 %numElem, i32* %4, align 4
  call void @llvm.dbg.declare(metadata i32* %4, metadata !2141, metadata !1862), !dbg !2142
  call void @llvm.dbg.declare(metadata i32* %k, metadata !2143, metadata !1862), !dbg !2145
  store i32 0, i32* %k, align 4, !dbg !2145
  br label %5, !dbg !2146

; <label>:5                                       ; preds = %152, %0
  %6 = load i32, i32* %k, align 4, !dbg !2147
  %7 = load i32, i32* %4, align 4, !dbg !2150
  %8 = icmp slt i32 %6, %7, !dbg !2151
  br i1 %8, label %9, label %155, !dbg !2152

; <label>:9                                       ; preds = %5
  call void @llvm.dbg.declare(metadata [3 x [8 x double]]* %B, metadata !2153, metadata !1862), !dbg !2158
  call void @llvm.dbg.declare(metadata [6 x double]* %D, metadata !2159, metadata !1862), !dbg !2163
  call void @llvm.dbg.declare(metadata [8 x double]* %x_local, metadata !2164, metadata !1862), !dbg !2165
  call void @llvm.dbg.declare(metadata [8 x double]* %y_local, metadata !2166, metadata !1862), !dbg !2167
  call void @llvm.dbg.declare(metadata [8 x double]* %z_local, metadata !2168, metadata !1862), !dbg !2169
  call void @llvm.dbg.declare(metadata [8 x double]* %xd_local, metadata !2170, metadata !1862), !dbg !2171
  call void @llvm.dbg.declare(metadata [8 x double]* %yd_local, metadata !2172, metadata !1862), !dbg !2173
  call void @llvm.dbg.declare(metadata [8 x double]* %zd_local, metadata !2174, metadata !1862), !dbg !2175
  call void @llvm.dbg.declare(metadata double* %detJ, metadata !2176, metadata !1862), !dbg !2177
  store double 0.000000e+00, double* %detJ, align 8, !dbg !2177
  call void @llvm.dbg.declare(metadata double* %volume, metadata !2178, metadata !1862), !dbg !2179
  call void @llvm.dbg.declare(metadata double* %relativeVolume, metadata !2180, metadata !1862), !dbg !2181
  call void @llvm.dbg.declare(metadata i32** %elemToNode, metadata !2182, metadata !1862), !dbg !2184
  %10 = load %class.Domain*, %class.Domain** %1, align 8, !dbg !2185
  %11 = load i32, i32* %k, align 4, !dbg !2186
  %12 = call i32* @_ZN6Domain8nodelistEi(%class.Domain* %10, i32 %11), !dbg !2185
  store i32* %12, i32** %elemToNode, align 8, !dbg !2184
  %13 = load %class.Domain*, %class.Domain** %1, align 8, !dbg !2187
  %14 = load i32*, i32** %elemToNode, align 8, !dbg !2188
  %15 = getelementptr inbounds [8 x double], [8 x double]* %x_local, i32 0, i32 0, !dbg !2189
  %16 = getelementptr inbounds [8 x double], [8 x double]* %y_local, i32 0, i32 0, !dbg !2190
  %17 = getelementptr inbounds [8 x double], [8 x double]* %z_local, i32 0, i32 0, !dbg !2191
  call void @_ZL29CollectDomainNodesToElemNodesR6DomainPKiPdS3_S3_(%class.Domain* dereferenceable(1456) %13, i32* %14, double* %15, double* %16, double* %17), !dbg !2192
  %18 = getelementptr inbounds [8 x double], [8 x double]* %x_local, i32 0, i32 0, !dbg !2193
  %19 = getelementptr inbounds [8 x double], [8 x double]* %y_local, i32 0, i32 0, !dbg !2194
  %20 = getelementptr inbounds [8 x double], [8 x double]* %z_local, i32 0, i32 0, !dbg !2195
  %21 = call double @_Z14CalcElemVolumePKdS0_S0_(double* %18, double* %19, double* %20), !dbg !2196
  store double %21, double* %volume, align 8, !dbg !2197
  %22 = load double, double* %volume, align 8, !dbg !2198
  %23 = load %class.Domain*, %class.Domain** %1, align 8, !dbg !2199
  %24 = load i32, i32* %k, align 4, !dbg !2200
  %25 = call dereferenceable(8) double* @_ZN6Domain4voloEi(%class.Domain* %23, i32 %24), !dbg !2199
  %26 = load double, double* %25, align 8, !dbg !2199
  %27 = fdiv double %22, %26, !dbg !2201
  store double %27, double* %relativeVolume, align 8, !dbg !2202
  %28 = load double, double* %relativeVolume, align 8, !dbg !2203
  %29 = load i32, i32* %k, align 4, !dbg !2204
  %30 = sext i32 %29 to i64, !dbg !2205
  %31 = load double*, double** %2, align 8, !dbg !2205
  %32 = getelementptr inbounds double, double* %31, i64 %30, !dbg !2205
  store double %28, double* %32, align 8, !dbg !2206
  %33 = load double, double* %relativeVolume, align 8, !dbg !2207
  %34 = load %class.Domain*, %class.Domain** %1, align 8, !dbg !2208
  %35 = load i32, i32* %k, align 4, !dbg !2209
  %36 = call dereferenceable(8) double* @_ZN6Domain1vEi(%class.Domain* %34, i32 %35), !dbg !2208
  %37 = load double, double* %36, align 8, !dbg !2208
  %38 = fsub double %33, %37, !dbg !2210
  %39 = load %class.Domain*, %class.Domain** %1, align 8, !dbg !2211
  %40 = load i32, i32* %k, align 4, !dbg !2212
  %41 = call dereferenceable(8) double* @_ZN6Domain4delvEi(%class.Domain* %39, i32 %40), !dbg !2213
  store double %38, double* %41, align 8, !dbg !2215
  %42 = getelementptr inbounds [8 x double], [8 x double]* %x_local, i32 0, i32 0, !dbg !2216
  %43 = getelementptr inbounds [8 x double], [8 x double]* %y_local, i32 0, i32 0, !dbg !2217
  %44 = getelementptr inbounds [8 x double], [8 x double]* %z_local, i32 0, i32 0, !dbg !2218
  %45 = load double, double* %volume, align 8, !dbg !2219
  %46 = call double @_ZL28CalcElemCharacteristicLengthPKdS0_S0_d(double* %42, double* %43, double* %44, double %45), !dbg !2220
  %47 = load %class.Domain*, %class.Domain** %1, align 8, !dbg !2221
  %48 = load i32, i32* %k, align 4, !dbg !2222
  %49 = call dereferenceable(8) double* @_ZN6Domain6arealgEi(%class.Domain* %47, i32 %48), !dbg !2223
  store double %46, double* %49, align 8, !dbg !2224
  call void @llvm.dbg.declare(metadata i32* %lnode, metadata !2225, metadata !1862), !dbg !2227
  store i32 0, i32* %lnode, align 4, !dbg !2227
  br label %50, !dbg !2228

; <label>:50                                      ; preds = %80, %9
  %51 = load i32, i32* %lnode, align 4, !dbg !2229
  %52 = icmp slt i32 %51, 8, !dbg !2232
  br i1 %52, label %53, label %83, !dbg !2233

; <label>:53                                      ; preds = %50
  call void @llvm.dbg.declare(metadata i32* %gnode, metadata !2234, metadata !1862), !dbg !2236
  %54 = load i32, i32* %lnode, align 4, !dbg !2237
  %55 = sext i32 %54 to i64, !dbg !2238
  %56 = load i32*, i32** %elemToNode, align 8, !dbg !2238
  %57 = getelementptr inbounds i32, i32* %56, i64 %55, !dbg !2238
  %58 = load i32, i32* %57, align 4, !dbg !2238
  store i32 %58, i32* %gnode, align 4, !dbg !2236
  %59 = load %class.Domain*, %class.Domain** %1, align 8, !dbg !2239
  %60 = load i32, i32* %gnode, align 4, !dbg !2240
  %61 = call dereferenceable(8) double* @_ZN6Domain2xdEi(%class.Domain* %59, i32 %60), !dbg !2239
  %62 = load double, double* %61, align 8, !dbg !2239
  %63 = load i32, i32* %lnode, align 4, !dbg !2241
  %64 = sext i32 %63 to i64, !dbg !2242
  %65 = getelementptr inbounds [8 x double], [8 x double]* %xd_local, i64 0, i64 %64, !dbg !2242
  store double %62, double* %65, align 8, !dbg !2243
  %66 = load %class.Domain*, %class.Domain** %1, align 8, !dbg !2244
  %67 = load i32, i32* %gnode, align 4, !dbg !2245
  %68 = call dereferenceable(8) double* @_ZN6Domain2ydEi(%class.Domain* %66, i32 %67), !dbg !2244
  %69 = load double, double* %68, align 8, !dbg !2244
  %70 = load i32, i32* %lnode, align 4, !dbg !2246
  %71 = sext i32 %70 to i64, !dbg !2247
  %72 = getelementptr inbounds [8 x double], [8 x double]* %yd_local, i64 0, i64 %71, !dbg !2247
  store double %69, double* %72, align 8, !dbg !2248
  %73 = load %class.Domain*, %class.Domain** %1, align 8, !dbg !2249
  %74 = load i32, i32* %gnode, align 4, !dbg !2250
  %75 = call dereferenceable(8) double* @_ZN6Domain2zdEi(%class.Domain* %73, i32 %74), !dbg !2249
  %76 = load double, double* %75, align 8, !dbg !2249
  %77 = load i32, i32* %lnode, align 4, !dbg !2251
  %78 = sext i32 %77 to i64, !dbg !2252
  %79 = getelementptr inbounds [8 x double], [8 x double]* %zd_local, i64 0, i64 %78, !dbg !2252
  store double %76, double* %79, align 8, !dbg !2253
  br label %80, !dbg !2254

; <label>:80                                      ; preds = %53
  %81 = load i32, i32* %lnode, align 4, !dbg !2255
  %82 = add nsw i32 %81, 1, !dbg !2255
  store i32 %82, i32* %lnode, align 4, !dbg !2255
  br label %50, !dbg !2257

; <label>:83                                      ; preds = %50
  call void @llvm.dbg.declare(metadata double* %dt2, metadata !2258, metadata !1862), !dbg !2259
  %84 = load double, double* %3, align 8, !dbg !2260
  %85 = fmul double 5.000000e-01, %84, !dbg !2261
  store double %85, double* %dt2, align 8, !dbg !2259
  call void @llvm.dbg.declare(metadata i32* %j, metadata !2262, metadata !1862), !dbg !2264
  store i32 0, i32* %j, align 4, !dbg !2264
  br label %86, !dbg !2265

; <label>:86                                      ; preds = %123, %83
  %87 = load i32, i32* %j, align 4, !dbg !2266
  %88 = icmp slt i32 %87, 8, !dbg !2269
  br i1 %88, label %89, label %126, !dbg !2270

; <label>:89                                      ; preds = %86
  %90 = load double, double* %dt2, align 8, !dbg !2271
  %91 = load i32, i32* %j, align 4, !dbg !2273
  %92 = sext i32 %91 to i64, !dbg !2274
  %93 = getelementptr inbounds [8 x double], [8 x double]* %xd_local, i64 0, i64 %92, !dbg !2274
  %94 = load double, double* %93, align 8, !dbg !2274
  %95 = fmul double %90, %94, !dbg !2275
  %96 = load i32, i32* %j, align 4, !dbg !2276
  %97 = sext i32 %96 to i64, !dbg !2277
  %98 = getelementptr inbounds [8 x double], [8 x double]* %x_local, i64 0, i64 %97, !dbg !2277
  %99 = load double, double* %98, align 8, !dbg !2278
  %100 = fsub double %99, %95, !dbg !2278
  store double %100, double* %98, align 8, !dbg !2278
  %101 = load double, double* %dt2, align 8, !dbg !2279
  %102 = load i32, i32* %j, align 4, !dbg !2280
  %103 = sext i32 %102 to i64, !dbg !2281
  %104 = getelementptr inbounds [8 x double], [8 x double]* %yd_local, i64 0, i64 %103, !dbg !2281
  %105 = load double, double* %104, align 8, !dbg !2281
  %106 = fmul double %101, %105, !dbg !2282
  %107 = load i32, i32* %j, align 4, !dbg !2283
  %108 = sext i32 %107 to i64, !dbg !2284
  %109 = getelementptr inbounds [8 x double], [8 x double]* %y_local, i64 0, i64 %108, !dbg !2284
  %110 = load double, double* %109, align 8, !dbg !2285
  %111 = fsub double %110, %106, !dbg !2285
  store double %111, double* %109, align 8, !dbg !2285
  %112 = load double, double* %dt2, align 8, !dbg !2286
  %113 = load i32, i32* %j, align 4, !dbg !2287
  %114 = sext i32 %113 to i64, !dbg !2288
  %115 = getelementptr inbounds [8 x double], [8 x double]* %zd_local, i64 0, i64 %114, !dbg !2288
  %116 = load double, double* %115, align 8, !dbg !2288
  %117 = fmul double %112, %116, !dbg !2289
  %118 = load i32, i32* %j, align 4, !dbg !2290
  %119 = sext i32 %118 to i64, !dbg !2291
  %120 = getelementptr inbounds [8 x double], [8 x double]* %z_local, i64 0, i64 %119, !dbg !2291
  %121 = load double, double* %120, align 8, !dbg !2292
  %122 = fsub double %121, %117, !dbg !2292
  store double %122, double* %120, align 8, !dbg !2292
  br label %123, !dbg !2293

; <label>:123                                     ; preds = %89
  %124 = load i32, i32* %j, align 4, !dbg !2294
  %125 = add nsw i32 %124, 1, !dbg !2294
  store i32 %125, i32* %j, align 4, !dbg !2294
  br label %86, !dbg !2296

; <label>:126                                     ; preds = %86
  %127 = getelementptr inbounds [8 x double], [8 x double]* %x_local, i32 0, i32 0, !dbg !2297
  %128 = getelementptr inbounds [8 x double], [8 x double]* %y_local, i32 0, i32 0, !dbg !2298
  %129 = getelementptr inbounds [8 x double], [8 x double]* %z_local, i32 0, i32 0, !dbg !2299
  %130 = getelementptr inbounds [3 x [8 x double]], [3 x [8 x double]]* %B, i32 0, i32 0, !dbg !2300
  call void @_ZL32CalcElemShapeFunctionDerivativesPKdS0_S0_PA8_dPd(double* %127, double* %128, double* %129, [8 x double]* %130, double* %detJ), !dbg !2301
  %131 = getelementptr inbounds [8 x double], [8 x double]* %xd_local, i32 0, i32 0, !dbg !2302
  %132 = getelementptr inbounds [8 x double], [8 x double]* %yd_local, i32 0, i32 0, !dbg !2303
  %133 = getelementptr inbounds [8 x double], [8 x double]* %zd_local, i32 0, i32 0, !dbg !2304
  %134 = getelementptr inbounds [3 x [8 x double]], [3 x [8 x double]]* %B, i32 0, i32 0, !dbg !2305
  %135 = load double, double* %detJ, align 8, !dbg !2306
  %136 = getelementptr inbounds [6 x double], [6 x double]* %D, i32 0, i32 0, !dbg !2307
  call void @_ZL24CalcElemVelocityGradientPKdS0_S0_PA8_S_dPd(double* %131, double* %132, double* %133, [8 x double]* %134, double %135, double* %136), !dbg !2308
  %137 = getelementptr inbounds [6 x double], [6 x double]* %D, i64 0, i64 0, !dbg !2309
  %138 = load double, double* %137, align 16, !dbg !2309
  %139 = load %class.Domain*, %class.Domain** %1, align 8, !dbg !2310
  %140 = load i32, i32* %k, align 4, !dbg !2311
  %141 = call dereferenceable(8) double* @_ZN6Domain3dxxEi(%class.Domain* %139, i32 %140), !dbg !2310
  store double %138, double* %141, align 8, !dbg !2312
  %142 = getelementptr inbounds [6 x double], [6 x double]* %D, i64 0, i64 1, !dbg !2313
  %143 = load double, double* %142, align 8, !dbg !2313
  %144 = load %class.Domain*, %class.Domain** %1, align 8, !dbg !2314
  %145 = load i32, i32* %k, align 4, !dbg !2315
  %146 = call dereferenceable(8) double* @_ZN6Domain3dyyEi(%class.Domain* %144, i32 %145), !dbg !2314
  store double %143, double* %146, align 8, !dbg !2316
  %147 = getelementptr inbounds [6 x double], [6 x double]* %D, i64 0, i64 2, !dbg !2317
  %148 = load double, double* %147, align 16, !dbg !2317
  %149 = load %class.Domain*, %class.Domain** %1, align 8, !dbg !2318
  %150 = load i32, i32* %k, align 4, !dbg !2319
  %151 = call dereferenceable(8) double* @_ZN6Domain3dzzEi(%class.Domain* %149, i32 %150), !dbg !2318
  store double %148, double* %151, align 8, !dbg !2320
  br label %152, !dbg !2321

; <label>:152                                     ; preds = %126
  %153 = load i32, i32* %k, align 4, !dbg !2322
  %154 = add nsw i32 %153, 1, !dbg !2322
  store i32 %154, i32* %k, align 4, !dbg !2322
  br label %5, !dbg !2324

; <label>:155                                     ; preds = %5
  ret void, !dbg !2325
}

; Function Attrs: uwtable
define linkonce_odr i32* @_ZN6Domain8nodelistEi(%class.Domain* %this, i32 %idx) #0 comdat align 2 !dbg !1170 {
  %1 = alloca %class.Domain*, align 8
  %2 = alloca i32, align 4
  store %class.Domain* %this, %class.Domain** %1, align 8
  call void @llvm.dbg.declare(metadata %class.Domain** %1, metadata !2326, metadata !1862), !dbg !2328
  store i32 %idx, i32* %2, align 4
  call void @llvm.dbg.declare(metadata i32* %2, metadata !2329, metadata !1862), !dbg !2330
  %3 = load %class.Domain*, %class.Domain** %1, align 8
  %4 = getelementptr inbounds %class.Domain, %class.Domain* %3, i32 0, i32 21, !dbg !2331
  %5 = load i32, i32* %2, align 4, !dbg !2332
  %6 = mul nsw i32 8, %5, !dbg !2333
  %7 = sext i32 %6 to i64, !dbg !2334
  %8 = call dereferenceable(4) i32* @_ZNSt6vectorIiSaIiEEixEm(%"class.std::vector.0"* %4, i64 %7), !dbg !2331
  ret i32* %8, !dbg !2335
}

; Function Attrs: inlinehint uwtable
define internal void @_ZL29CollectDomainNodesToElemNodesR6DomainPKiPdS3_S3_(%class.Domain* dereferenceable(1456) %domain, i32* %elemToNode, double* %elemX, double* %elemY, double* %elemZ) #5 !dbg !1172 {
  %1 = alloca %class.Domain*, align 8
  %2 = alloca i32*, align 8
  %3 = alloca double*, align 8
  %4 = alloca double*, align 8
  %5 = alloca double*, align 8
  %nd0i = alloca i32, align 4
  %nd1i = alloca i32, align 4
  %nd2i = alloca i32, align 4
  %nd3i = alloca i32, align 4
  %nd4i = alloca i32, align 4
  %nd5i = alloca i32, align 4
  %nd6i = alloca i32, align 4
  %nd7i = alloca i32, align 4
  store %class.Domain* %domain, %class.Domain** %1, align 8
  call void @llvm.dbg.declare(metadata %class.Domain** %1, metadata !2336, metadata !1862), !dbg !2337
  store i32* %elemToNode, i32** %2, align 8
  call void @llvm.dbg.declare(metadata i32** %2, metadata !2338, metadata !1862), !dbg !2339
  store double* %elemX, double** %3, align 8
  call void @llvm.dbg.declare(metadata double** %3, metadata !2340, metadata !1862), !dbg !2341
  store double* %elemY, double** %4, align 8
  call void @llvm.dbg.declare(metadata double** %4, metadata !2342, metadata !1862), !dbg !2343
  store double* %elemZ, double** %5, align 8
  call void @llvm.dbg.declare(metadata double** %5, metadata !2344, metadata !1862), !dbg !2345
  call void @llvm.dbg.declare(metadata i32* %nd0i, metadata !2346, metadata !1862), !dbg !2347
  %6 = load i32*, i32** %2, align 8, !dbg !2348
  %7 = getelementptr inbounds i32, i32* %6, i64 0, !dbg !2348
  %8 = load i32, i32* %7, align 4, !dbg !2348
  store i32 %8, i32* %nd0i, align 4, !dbg !2347
  call void @llvm.dbg.declare(metadata i32* %nd1i, metadata !2349, metadata !1862), !dbg !2350
  %9 = load i32*, i32** %2, align 8, !dbg !2351
  %10 = getelementptr inbounds i32, i32* %9, i64 1, !dbg !2351
  %11 = load i32, i32* %10, align 4, !dbg !2351
  store i32 %11, i32* %nd1i, align 4, !dbg !2350
  call void @llvm.dbg.declare(metadata i32* %nd2i, metadata !2352, metadata !1862), !dbg !2353
  %12 = load i32*, i32** %2, align 8, !dbg !2354
  %13 = getelementptr inbounds i32, i32* %12, i64 2, !dbg !2354
  %14 = load i32, i32* %13, align 4, !dbg !2354
  store i32 %14, i32* %nd2i, align 4, !dbg !2353
  call void @llvm.dbg.declare(metadata i32* %nd3i, metadata !2355, metadata !1862), !dbg !2356
  %15 = load i32*, i32** %2, align 8, !dbg !2357
  %16 = getelementptr inbounds i32, i32* %15, i64 3, !dbg !2357
  %17 = load i32, i32* %16, align 4, !dbg !2357
  store i32 %17, i32* %nd3i, align 4, !dbg !2356
  call void @llvm.dbg.declare(metadata i32* %nd4i, metadata !2358, metadata !1862), !dbg !2359
  %18 = load i32*, i32** %2, align 8, !dbg !2360
  %19 = getelementptr inbounds i32, i32* %18, i64 4, !dbg !2360
  %20 = load i32, i32* %19, align 4, !dbg !2360
  store i32 %20, i32* %nd4i, align 4, !dbg !2359
  call void @llvm.dbg.declare(metadata i32* %nd5i, metadata !2361, metadata !1862), !dbg !2362
  %21 = load i32*, i32** %2, align 8, !dbg !2363
  %22 = getelementptr inbounds i32, i32* %21, i64 5, !dbg !2363
  %23 = load i32, i32* %22, align 4, !dbg !2363
  store i32 %23, i32* %nd5i, align 4, !dbg !2362
  call void @llvm.dbg.declare(metadata i32* %nd6i, metadata !2364, metadata !1862), !dbg !2365
  %24 = load i32*, i32** %2, align 8, !dbg !2366
  %25 = getelementptr inbounds i32, i32* %24, i64 6, !dbg !2366
  %26 = load i32, i32* %25, align 4, !dbg !2366
  store i32 %26, i32* %nd6i, align 4, !dbg !2365
  call void @llvm.dbg.declare(metadata i32* %nd7i, metadata !2367, metadata !1862), !dbg !2368
  %27 = load i32*, i32** %2, align 8, !dbg !2369
  %28 = getelementptr inbounds i32, i32* %27, i64 7, !dbg !2369
  %29 = load i32, i32* %28, align 4, !dbg !2369
  store i32 %29, i32* %nd7i, align 4, !dbg !2368
  %30 = load %class.Domain*, %class.Domain** %1, align 8, !dbg !2370
  %31 = load i32, i32* %nd0i, align 4, !dbg !2371
  %32 = call dereferenceable(8) double* @_ZN6Domain1xEi(%class.Domain* %30, i32 %31), !dbg !2370
  %33 = load double, double* %32, align 8, !dbg !2370
  %34 = load double*, double** %3, align 8, !dbg !2372
  %35 = getelementptr inbounds double, double* %34, i64 0, !dbg !2372
  store double %33, double* %35, align 8, !dbg !2373
  %36 = load %class.Domain*, %class.Domain** %1, align 8, !dbg !2374
  %37 = load i32, i32* %nd1i, align 4, !dbg !2375
  %38 = call dereferenceable(8) double* @_ZN6Domain1xEi(%class.Domain* %36, i32 %37), !dbg !2374
  %39 = load double, double* %38, align 8, !dbg !2374
  %40 = load double*, double** %3, align 8, !dbg !2376
  %41 = getelementptr inbounds double, double* %40, i64 1, !dbg !2376
  store double %39, double* %41, align 8, !dbg !2377
  %42 = load %class.Domain*, %class.Domain** %1, align 8, !dbg !2378
  %43 = load i32, i32* %nd2i, align 4, !dbg !2379
  %44 = call dereferenceable(8) double* @_ZN6Domain1xEi(%class.Domain* %42, i32 %43), !dbg !2378
  %45 = load double, double* %44, align 8, !dbg !2378
  %46 = load double*, double** %3, align 8, !dbg !2380
  %47 = getelementptr inbounds double, double* %46, i64 2, !dbg !2380
  store double %45, double* %47, align 8, !dbg !2381
  %48 = load %class.Domain*, %class.Domain** %1, align 8, !dbg !2382
  %49 = load i32, i32* %nd3i, align 4, !dbg !2383
  %50 = call dereferenceable(8) double* @_ZN6Domain1xEi(%class.Domain* %48, i32 %49), !dbg !2382
  %51 = load double, double* %50, align 8, !dbg !2382
  %52 = load double*, double** %3, align 8, !dbg !2384
  %53 = getelementptr inbounds double, double* %52, i64 3, !dbg !2384
  store double %51, double* %53, align 8, !dbg !2385
  %54 = load %class.Domain*, %class.Domain** %1, align 8, !dbg !2386
  %55 = load i32, i32* %nd4i, align 4, !dbg !2387
  %56 = call dereferenceable(8) double* @_ZN6Domain1xEi(%class.Domain* %54, i32 %55), !dbg !2386
  %57 = load double, double* %56, align 8, !dbg !2386
  %58 = load double*, double** %3, align 8, !dbg !2388
  %59 = getelementptr inbounds double, double* %58, i64 4, !dbg !2388
  store double %57, double* %59, align 8, !dbg !2389
  %60 = load %class.Domain*, %class.Domain** %1, align 8, !dbg !2390
  %61 = load i32, i32* %nd5i, align 4, !dbg !2391
  %62 = call dereferenceable(8) double* @_ZN6Domain1xEi(%class.Domain* %60, i32 %61), !dbg !2390
  %63 = load double, double* %62, align 8, !dbg !2390
  %64 = load double*, double** %3, align 8, !dbg !2392
  %65 = getelementptr inbounds double, double* %64, i64 5, !dbg !2392
  store double %63, double* %65, align 8, !dbg !2393
  %66 = load %class.Domain*, %class.Domain** %1, align 8, !dbg !2394
  %67 = load i32, i32* %nd6i, align 4, !dbg !2395
  %68 = call dereferenceable(8) double* @_ZN6Domain1xEi(%class.Domain* %66, i32 %67), !dbg !2394
  %69 = load double, double* %68, align 8, !dbg !2394
  %70 = load double*, double** %3, align 8, !dbg !2396
  %71 = getelementptr inbounds double, double* %70, i64 6, !dbg !2396
  store double %69, double* %71, align 8, !dbg !2397
  %72 = load %class.Domain*, %class.Domain** %1, align 8, !dbg !2398
  %73 = load i32, i32* %nd7i, align 4, !dbg !2399
  %74 = call dereferenceable(8) double* @_ZN6Domain1xEi(%class.Domain* %72, i32 %73), !dbg !2398
  %75 = load double, double* %74, align 8, !dbg !2398
  %76 = load double*, double** %3, align 8, !dbg !2400
  %77 = getelementptr inbounds double, double* %76, i64 7, !dbg !2400
  store double %75, double* %77, align 8, !dbg !2401
  %78 = load %class.Domain*, %class.Domain** %1, align 8, !dbg !2402
  %79 = load i32, i32* %nd0i, align 4, !dbg !2403
  %80 = call dereferenceable(8) double* @_ZN6Domain1yEi(%class.Domain* %78, i32 %79), !dbg !2402
  %81 = load double, double* %80, align 8, !dbg !2402
  %82 = load double*, double** %4, align 8, !dbg !2404
  %83 = getelementptr inbounds double, double* %82, i64 0, !dbg !2404
  store double %81, double* %83, align 8, !dbg !2405
  %84 = load %class.Domain*, %class.Domain** %1, align 8, !dbg !2406
  %85 = load i32, i32* %nd1i, align 4, !dbg !2407
  %86 = call dereferenceable(8) double* @_ZN6Domain1yEi(%class.Domain* %84, i32 %85), !dbg !2406
  %87 = load double, double* %86, align 8, !dbg !2406
  %88 = load double*, double** %4, align 8, !dbg !2408
  %89 = getelementptr inbounds double, double* %88, i64 1, !dbg !2408
  store double %87, double* %89, align 8, !dbg !2409
  %90 = load %class.Domain*, %class.Domain** %1, align 8, !dbg !2410
  %91 = load i32, i32* %nd2i, align 4, !dbg !2411
  %92 = call dereferenceable(8) double* @_ZN6Domain1yEi(%class.Domain* %90, i32 %91), !dbg !2410
  %93 = load double, double* %92, align 8, !dbg !2410
  %94 = load double*, double** %4, align 8, !dbg !2412
  %95 = getelementptr inbounds double, double* %94, i64 2, !dbg !2412
  store double %93, double* %95, align 8, !dbg !2413
  %96 = load %class.Domain*, %class.Domain** %1, align 8, !dbg !2414
  %97 = load i32, i32* %nd3i, align 4, !dbg !2415
  %98 = call dereferenceable(8) double* @_ZN6Domain1yEi(%class.Domain* %96, i32 %97), !dbg !2414
  %99 = load double, double* %98, align 8, !dbg !2414
  %100 = load double*, double** %4, align 8, !dbg !2416
  %101 = getelementptr inbounds double, double* %100, i64 3, !dbg !2416
  store double %99, double* %101, align 8, !dbg !2417
  %102 = load %class.Domain*, %class.Domain** %1, align 8, !dbg !2418
  %103 = load i32, i32* %nd4i, align 4, !dbg !2419
  %104 = call dereferenceable(8) double* @_ZN6Domain1yEi(%class.Domain* %102, i32 %103), !dbg !2418
  %105 = load double, double* %104, align 8, !dbg !2418
  %106 = load double*, double** %4, align 8, !dbg !2420
  %107 = getelementptr inbounds double, double* %106, i64 4, !dbg !2420
  store double %105, double* %107, align 8, !dbg !2421
  %108 = load %class.Domain*, %class.Domain** %1, align 8, !dbg !2422
  %109 = load i32, i32* %nd5i, align 4, !dbg !2423
  %110 = call dereferenceable(8) double* @_ZN6Domain1yEi(%class.Domain* %108, i32 %109), !dbg !2422
  %111 = load double, double* %110, align 8, !dbg !2422
  %112 = load double*, double** %4, align 8, !dbg !2424
  %113 = getelementptr inbounds double, double* %112, i64 5, !dbg !2424
  store double %111, double* %113, align 8, !dbg !2425
  %114 = load %class.Domain*, %class.Domain** %1, align 8, !dbg !2426
  %115 = load i32, i32* %nd6i, align 4, !dbg !2427
  %116 = call dereferenceable(8) double* @_ZN6Domain1yEi(%class.Domain* %114, i32 %115), !dbg !2426
  %117 = load double, double* %116, align 8, !dbg !2426
  %118 = load double*, double** %4, align 8, !dbg !2428
  %119 = getelementptr inbounds double, double* %118, i64 6, !dbg !2428
  store double %117, double* %119, align 8, !dbg !2429
  %120 = load %class.Domain*, %class.Domain** %1, align 8, !dbg !2430
  %121 = load i32, i32* %nd7i, align 4, !dbg !2431
  %122 = call dereferenceable(8) double* @_ZN6Domain1yEi(%class.Domain* %120, i32 %121), !dbg !2430
  %123 = load double, double* %122, align 8, !dbg !2430
  %124 = load double*, double** %4, align 8, !dbg !2432
  %125 = getelementptr inbounds double, double* %124, i64 7, !dbg !2432
  store double %123, double* %125, align 8, !dbg !2433
  %126 = load %class.Domain*, %class.Domain** %1, align 8, !dbg !2434
  %127 = load i32, i32* %nd0i, align 4, !dbg !2435
  %128 = call dereferenceable(8) double* @_ZN6Domain1zEi(%class.Domain* %126, i32 %127), !dbg !2434
  %129 = load double, double* %128, align 8, !dbg !2434
  %130 = load double*, double** %5, align 8, !dbg !2436
  %131 = getelementptr inbounds double, double* %130, i64 0, !dbg !2436
  store double %129, double* %131, align 8, !dbg !2437
  %132 = load %class.Domain*, %class.Domain** %1, align 8, !dbg !2438
  %133 = load i32, i32* %nd1i, align 4, !dbg !2439
  %134 = call dereferenceable(8) double* @_ZN6Domain1zEi(%class.Domain* %132, i32 %133), !dbg !2438
  %135 = load double, double* %134, align 8, !dbg !2438
  %136 = load double*, double** %5, align 8, !dbg !2440
  %137 = getelementptr inbounds double, double* %136, i64 1, !dbg !2440
  store double %135, double* %137, align 8, !dbg !2441
  %138 = load %class.Domain*, %class.Domain** %1, align 8, !dbg !2442
  %139 = load i32, i32* %nd2i, align 4, !dbg !2443
  %140 = call dereferenceable(8) double* @_ZN6Domain1zEi(%class.Domain* %138, i32 %139), !dbg !2442
  %141 = load double, double* %140, align 8, !dbg !2442
  %142 = load double*, double** %5, align 8, !dbg !2444
  %143 = getelementptr inbounds double, double* %142, i64 2, !dbg !2444
  store double %141, double* %143, align 8, !dbg !2445
  %144 = load %class.Domain*, %class.Domain** %1, align 8, !dbg !2446
  %145 = load i32, i32* %nd3i, align 4, !dbg !2447
  %146 = call dereferenceable(8) double* @_ZN6Domain1zEi(%class.Domain* %144, i32 %145), !dbg !2446
  %147 = load double, double* %146, align 8, !dbg !2446
  %148 = load double*, double** %5, align 8, !dbg !2448
  %149 = getelementptr inbounds double, double* %148, i64 3, !dbg !2448
  store double %147, double* %149, align 8, !dbg !2449
  %150 = load %class.Domain*, %class.Domain** %1, align 8, !dbg !2450
  %151 = load i32, i32* %nd4i, align 4, !dbg !2451
  %152 = call dereferenceable(8) double* @_ZN6Domain1zEi(%class.Domain* %150, i32 %151), !dbg !2450
  %153 = load double, double* %152, align 8, !dbg !2450
  %154 = load double*, double** %5, align 8, !dbg !2452
  %155 = getelementptr inbounds double, double* %154, i64 4, !dbg !2452
  store double %153, double* %155, align 8, !dbg !2453
  %156 = load %class.Domain*, %class.Domain** %1, align 8, !dbg !2454
  %157 = load i32, i32* %nd5i, align 4, !dbg !2455
  %158 = call dereferenceable(8) double* @_ZN6Domain1zEi(%class.Domain* %156, i32 %157), !dbg !2454
  %159 = load double, double* %158, align 8, !dbg !2454
  %160 = load double*, double** %5, align 8, !dbg !2456
  %161 = getelementptr inbounds double, double* %160, i64 5, !dbg !2456
  store double %159, double* %161, align 8, !dbg !2457
  %162 = load %class.Domain*, %class.Domain** %1, align 8, !dbg !2458
  %163 = load i32, i32* %nd6i, align 4, !dbg !2459
  %164 = call dereferenceable(8) double* @_ZN6Domain1zEi(%class.Domain* %162, i32 %163), !dbg !2458
  %165 = load double, double* %164, align 8, !dbg !2458
  %166 = load double*, double** %5, align 8, !dbg !2460
  %167 = getelementptr inbounds double, double* %166, i64 6, !dbg !2460
  store double %165, double* %167, align 8, !dbg !2461
  %168 = load %class.Domain*, %class.Domain** %1, align 8, !dbg !2462
  %169 = load i32, i32* %nd7i, align 4, !dbg !2463
  %170 = call dereferenceable(8) double* @_ZN6Domain1zEi(%class.Domain* %168, i32 %169), !dbg !2462
  %171 = load double, double* %170, align 8, !dbg !2462
  %172 = load double*, double** %5, align 8, !dbg !2464
  %173 = getelementptr inbounds double, double* %172, i64 7, !dbg !2464
  store double %171, double* %173, align 8, !dbg !2465
  ret void, !dbg !2466
}

; Function Attrs: nounwind uwtable
define linkonce_odr dereferenceable(8) double* @_ZN6Domain4voloEi(%class.Domain* %this, i32 %idx) #6 comdat align 2 !dbg !1181 {
  %1 = alloca %class.Domain*, align 8
  %2 = alloca i32, align 4
  store %class.Domain* %this, %class.Domain** %1, align 8
  call void @llvm.dbg.declare(metadata %class.Domain** %1, metadata !2467, metadata !1862), !dbg !2468
  store i32 %idx, i32* %2, align 4
  call void @llvm.dbg.declare(metadata i32* %2, metadata !2469, metadata !1862), !dbg !2470
  %3 = load %class.Domain*, %class.Domain** %1, align 8
  %4 = getelementptr inbounds %class.Domain, %class.Domain* %3, i32 0, i32 44, !dbg !2471
  %5 = load i32, i32* %2, align 4, !dbg !2472
  %6 = sext i32 %5 to i64, !dbg !2472
  %7 = call dereferenceable(8) double* @_ZNSt6vectorIdSaIdEEixEm(%"class.std::vector"* %4, i64 %6), !dbg !2471
  ret double* %7, !dbg !2473
}

; Function Attrs: nounwind uwtable
define linkonce_odr dereferenceable(8) double* @_ZN6Domain1vEi(%class.Domain* %this, i32 %idx) #6 comdat align 2 !dbg !1182 {
  %1 = alloca %class.Domain*, align 8
  %2 = alloca i32, align 4
  store %class.Domain* %this, %class.Domain** %1, align 8
  call void @llvm.dbg.declare(metadata %class.Domain** %1, metadata !2474, metadata !1862), !dbg !2475
  store i32 %idx, i32* %2, align 4
  call void @llvm.dbg.declare(metadata i32* %2, metadata !2476, metadata !1862), !dbg !2477
  %3 = load %class.Domain*, %class.Domain** %1, align 8
  %4 = getelementptr inbounds %class.Domain, %class.Domain* %3, i32 0, i32 43, !dbg !2478
  %5 = load i32, i32* %2, align 4, !dbg !2479
  %6 = sext i32 %5 to i64, !dbg !2479
  %7 = call dereferenceable(8) double* @_ZNSt6vectorIdSaIdEEixEm(%"class.std::vector"* %4, i64 %6), !dbg !2478
  ret double* %7, !dbg !2480
}

; Function Attrs: nounwind uwtable
define linkonce_odr dereferenceable(8) double* @_ZN6Domain4delvEi(%class.Domain* %this, i32 %idx) #6 comdat align 2 !dbg !1183 {
  %1 = alloca %class.Domain*, align 8
  %2 = alloca i32, align 4
  store %class.Domain* %this, %class.Domain** %1, align 8
  call void @llvm.dbg.declare(metadata %class.Domain** %1, metadata !2481, metadata !1862), !dbg !2482
  store i32 %idx, i32* %2, align 4
  call void @llvm.dbg.declare(metadata i32* %2, metadata !2483, metadata !1862), !dbg !2484
  %3 = load %class.Domain*, %class.Domain** %1, align 8
  %4 = getelementptr inbounds %class.Domain, %class.Domain* %3, i32 0, i32 46, !dbg !2485
  %5 = load i32, i32* %2, align 4, !dbg !2486
  %6 = sext i32 %5 to i64, !dbg !2486
  %7 = call dereferenceable(8) double* @_ZNSt6vectorIdSaIdEEixEm(%"class.std::vector"* %4, i64 %6), !dbg !2485
  ret double* %7, !dbg !2487
}

; Function Attrs: inlinehint uwtable
define internal double @_ZL28CalcElemCharacteristicLengthPKdS0_S0_d(double* %x, double* %y, double* %z, double %volume) #5 !dbg !1184 {
  %1 = alloca double*, align 8
  %2 = alloca double*, align 8
  %3 = alloca double*, align 8
  %4 = alloca double, align 8
  %a = alloca double, align 8
  %charLength = alloca double, align 8
  store double* %x, double** %1, align 8
  call void @llvm.dbg.declare(metadata double** %1, metadata !2488, metadata !1862), !dbg !2489
  store double* %y, double** %2, align 8
  call void @llvm.dbg.declare(metadata double** %2, metadata !2490, metadata !1862), !dbg !2491
  store double* %z, double** %3, align 8
  call void @llvm.dbg.declare(metadata double** %3, metadata !2492, metadata !1862), !dbg !2493
  store double %volume, double* %4, align 8
  call void @llvm.dbg.declare(metadata double* %4, metadata !2494, metadata !1862), !dbg !2495
  call void @llvm.dbg.declare(metadata double* %a, metadata !2496, metadata !1862), !dbg !2497
  call void @llvm.dbg.declare(metadata double* %charLength, metadata !2498, metadata !1862), !dbg !2499
  store double 0.000000e+00, double* %charLength, align 8, !dbg !2499
  %5 = load double*, double** %1, align 8, !dbg !2500
  %6 = getelementptr inbounds double, double* %5, i64 0, !dbg !2500
  %7 = load double, double* %6, align 8, !dbg !2500
  %8 = load double*, double** %1, align 8, !dbg !2501
  %9 = getelementptr inbounds double, double* %8, i64 1, !dbg !2501
  %10 = load double, double* %9, align 8, !dbg !2501
  %11 = load double*, double** %1, align 8, !dbg !2502
  %12 = getelementptr inbounds double, double* %11, i64 2, !dbg !2502
  %13 = load double, double* %12, align 8, !dbg !2502
  %14 = load double*, double** %1, align 8, !dbg !2503
  %15 = getelementptr inbounds double, double* %14, i64 3, !dbg !2503
  %16 = load double, double* %15, align 8, !dbg !2503
  %17 = load double*, double** %2, align 8, !dbg !2504
  %18 = getelementptr inbounds double, double* %17, i64 0, !dbg !2504
  %19 = load double, double* %18, align 8, !dbg !2504
  %20 = load double*, double** %2, align 8, !dbg !2505
  %21 = getelementptr inbounds double, double* %20, i64 1, !dbg !2505
  %22 = load double, double* %21, align 8, !dbg !2505
  %23 = load double*, double** %2, align 8, !dbg !2506
  %24 = getelementptr inbounds double, double* %23, i64 2, !dbg !2506
  %25 = load double, double* %24, align 8, !dbg !2506
  %26 = load double*, double** %2, align 8, !dbg !2507
  %27 = getelementptr inbounds double, double* %26, i64 3, !dbg !2507
  %28 = load double, double* %27, align 8, !dbg !2507
  %29 = load double*, double** %3, align 8, !dbg !2508
  %30 = getelementptr inbounds double, double* %29, i64 0, !dbg !2508
  %31 = load double, double* %30, align 8, !dbg !2508
  %32 = load double*, double** %3, align 8, !dbg !2509
  %33 = getelementptr inbounds double, double* %32, i64 1, !dbg !2509
  %34 = load double, double* %33, align 8, !dbg !2509
  %35 = load double*, double** %3, align 8, !dbg !2510
  %36 = getelementptr inbounds double, double* %35, i64 2, !dbg !2510
  %37 = load double, double* %36, align 8, !dbg !2510
  %38 = load double*, double** %3, align 8, !dbg !2511
  %39 = getelementptr inbounds double, double* %38, i64 3, !dbg !2511
  %40 = load double, double* %39, align 8, !dbg !2511
  %41 = call double @_ZL8AreaFacedddddddddddd(double %7, double %10, double %13, double %16, double %19, double %22, double %25, double %28, double %31, double %34, double %37, double %40), !dbg !2512
  store double %41, double* %a, align 8, !dbg !2513
  %42 = call dereferenceable(8) double* @_ZSt3maxIdERKT_S2_S2_(double* dereferenceable(8) %a, double* dereferenceable(8) %charLength), !dbg !2514
  %43 = load double, double* %42, align 8, !dbg !2514
  store double %43, double* %charLength, align 8, !dbg !2515
  %44 = load double*, double** %1, align 8, !dbg !2516
  %45 = getelementptr inbounds double, double* %44, i64 4, !dbg !2516
  %46 = load double, double* %45, align 8, !dbg !2516
  %47 = load double*, double** %1, align 8, !dbg !2517
  %48 = getelementptr inbounds double, double* %47, i64 5, !dbg !2517
  %49 = load double, double* %48, align 8, !dbg !2517
  %50 = load double*, double** %1, align 8, !dbg !2518
  %51 = getelementptr inbounds double, double* %50, i64 6, !dbg !2518
  %52 = load double, double* %51, align 8, !dbg !2518
  %53 = load double*, double** %1, align 8, !dbg !2519
  %54 = getelementptr inbounds double, double* %53, i64 7, !dbg !2519
  %55 = load double, double* %54, align 8, !dbg !2519
  %56 = load double*, double** %2, align 8, !dbg !2520
  %57 = getelementptr inbounds double, double* %56, i64 4, !dbg !2520
  %58 = load double, double* %57, align 8, !dbg !2520
  %59 = load double*, double** %2, align 8, !dbg !2521
  %60 = getelementptr inbounds double, double* %59, i64 5, !dbg !2521
  %61 = load double, double* %60, align 8, !dbg !2521
  %62 = load double*, double** %2, align 8, !dbg !2522
  %63 = getelementptr inbounds double, double* %62, i64 6, !dbg !2522
  %64 = load double, double* %63, align 8, !dbg !2522
  %65 = load double*, double** %2, align 8, !dbg !2523
  %66 = getelementptr inbounds double, double* %65, i64 7, !dbg !2523
  %67 = load double, double* %66, align 8, !dbg !2523
  %68 = load double*, double** %3, align 8, !dbg !2524
  %69 = getelementptr inbounds double, double* %68, i64 4, !dbg !2524
  %70 = load double, double* %69, align 8, !dbg !2524
  %71 = load double*, double** %3, align 8, !dbg !2525
  %72 = getelementptr inbounds double, double* %71, i64 5, !dbg !2525
  %73 = load double, double* %72, align 8, !dbg !2525
  %74 = load double*, double** %3, align 8, !dbg !2526
  %75 = getelementptr inbounds double, double* %74, i64 6, !dbg !2526
  %76 = load double, double* %75, align 8, !dbg !2526
  %77 = load double*, double** %3, align 8, !dbg !2527
  %78 = getelementptr inbounds double, double* %77, i64 7, !dbg !2527
  %79 = load double, double* %78, align 8, !dbg !2527
  %80 = call double @_ZL8AreaFacedddddddddddd(double %46, double %49, double %52, double %55, double %58, double %61, double %64, double %67, double %70, double %73, double %76, double %79), !dbg !2528
  store double %80, double* %a, align 8, !dbg !2529
  %81 = call dereferenceable(8) double* @_ZSt3maxIdERKT_S2_S2_(double* dereferenceable(8) %a, double* dereferenceable(8) %charLength), !dbg !2530
  %82 = load double, double* %81, align 8, !dbg !2530
  store double %82, double* %charLength, align 8, !dbg !2531
  %83 = load double*, double** %1, align 8, !dbg !2532
  %84 = getelementptr inbounds double, double* %83, i64 0, !dbg !2532
  %85 = load double, double* %84, align 8, !dbg !2532
  %86 = load double*, double** %1, align 8, !dbg !2533
  %87 = getelementptr inbounds double, double* %86, i64 1, !dbg !2533
  %88 = load double, double* %87, align 8, !dbg !2533
  %89 = load double*, double** %1, align 8, !dbg !2534
  %90 = getelementptr inbounds double, double* %89, i64 5, !dbg !2534
  %91 = load double, double* %90, align 8, !dbg !2534
  %92 = load double*, double** %1, align 8, !dbg !2535
  %93 = getelementptr inbounds double, double* %92, i64 4, !dbg !2535
  %94 = load double, double* %93, align 8, !dbg !2535
  %95 = load double*, double** %2, align 8, !dbg !2536
  %96 = getelementptr inbounds double, double* %95, i64 0, !dbg !2536
  %97 = load double, double* %96, align 8, !dbg !2536
  %98 = load double*, double** %2, align 8, !dbg !2537
  %99 = getelementptr inbounds double, double* %98, i64 1, !dbg !2537
  %100 = load double, double* %99, align 8, !dbg !2537
  %101 = load double*, double** %2, align 8, !dbg !2538
  %102 = getelementptr inbounds double, double* %101, i64 5, !dbg !2538
  %103 = load double, double* %102, align 8, !dbg !2538
  %104 = load double*, double** %2, align 8, !dbg !2539
  %105 = getelementptr inbounds double, double* %104, i64 4, !dbg !2539
  %106 = load double, double* %105, align 8, !dbg !2539
  %107 = load double*, double** %3, align 8, !dbg !2540
  %108 = getelementptr inbounds double, double* %107, i64 0, !dbg !2540
  %109 = load double, double* %108, align 8, !dbg !2540
  %110 = load double*, double** %3, align 8, !dbg !2541
  %111 = getelementptr inbounds double, double* %110, i64 1, !dbg !2541
  %112 = load double, double* %111, align 8, !dbg !2541
  %113 = load double*, double** %3, align 8, !dbg !2542
  %114 = getelementptr inbounds double, double* %113, i64 5, !dbg !2542
  %115 = load double, double* %114, align 8, !dbg !2542
  %116 = load double*, double** %3, align 8, !dbg !2543
  %117 = getelementptr inbounds double, double* %116, i64 4, !dbg !2543
  %118 = load double, double* %117, align 8, !dbg !2543
  %119 = call double @_ZL8AreaFacedddddddddddd(double %85, double %88, double %91, double %94, double %97, double %100, double %103, double %106, double %109, double %112, double %115, double %118), !dbg !2544
  store double %119, double* %a, align 8, !dbg !2545
  %120 = call dereferenceable(8) double* @_ZSt3maxIdERKT_S2_S2_(double* dereferenceable(8) %a, double* dereferenceable(8) %charLength), !dbg !2546
  %121 = load double, double* %120, align 8, !dbg !2546
  store double %121, double* %charLength, align 8, !dbg !2547
  %122 = load double*, double** %1, align 8, !dbg !2548
  %123 = getelementptr inbounds double, double* %122, i64 1, !dbg !2548
  %124 = load double, double* %123, align 8, !dbg !2548
  %125 = load double*, double** %1, align 8, !dbg !2549
  %126 = getelementptr inbounds double, double* %125, i64 2, !dbg !2549
  %127 = load double, double* %126, align 8, !dbg !2549
  %128 = load double*, double** %1, align 8, !dbg !2550
  %129 = getelementptr inbounds double, double* %128, i64 6, !dbg !2550
  %130 = load double, double* %129, align 8, !dbg !2550
  %131 = load double*, double** %1, align 8, !dbg !2551
  %132 = getelementptr inbounds double, double* %131, i64 5, !dbg !2551
  %133 = load double, double* %132, align 8, !dbg !2551
  %134 = load double*, double** %2, align 8, !dbg !2552
  %135 = getelementptr inbounds double, double* %134, i64 1, !dbg !2552
  %136 = load double, double* %135, align 8, !dbg !2552
  %137 = load double*, double** %2, align 8, !dbg !2553
  %138 = getelementptr inbounds double, double* %137, i64 2, !dbg !2553
  %139 = load double, double* %138, align 8, !dbg !2553
  %140 = load double*, double** %2, align 8, !dbg !2554
  %141 = getelementptr inbounds double, double* %140, i64 6, !dbg !2554
  %142 = load double, double* %141, align 8, !dbg !2554
  %143 = load double*, double** %2, align 8, !dbg !2555
  %144 = getelementptr inbounds double, double* %143, i64 5, !dbg !2555
  %145 = load double, double* %144, align 8, !dbg !2555
  %146 = load double*, double** %3, align 8, !dbg !2556
  %147 = getelementptr inbounds double, double* %146, i64 1, !dbg !2556
  %148 = load double, double* %147, align 8, !dbg !2556
  %149 = load double*, double** %3, align 8, !dbg !2557
  %150 = getelementptr inbounds double, double* %149, i64 2, !dbg !2557
  %151 = load double, double* %150, align 8, !dbg !2557
  %152 = load double*, double** %3, align 8, !dbg !2558
  %153 = getelementptr inbounds double, double* %152, i64 6, !dbg !2558
  %154 = load double, double* %153, align 8, !dbg !2558
  %155 = load double*, double** %3, align 8, !dbg !2559
  %156 = getelementptr inbounds double, double* %155, i64 5, !dbg !2559
  %157 = load double, double* %156, align 8, !dbg !2559
  %158 = call double @_ZL8AreaFacedddddddddddd(double %124, double %127, double %130, double %133, double %136, double %139, double %142, double %145, double %148, double %151, double %154, double %157), !dbg !2560
  store double %158, double* %a, align 8, !dbg !2561
  %159 = call dereferenceable(8) double* @_ZSt3maxIdERKT_S2_S2_(double* dereferenceable(8) %a, double* dereferenceable(8) %charLength), !dbg !2562
  %160 = load double, double* %159, align 8, !dbg !2562
  store double %160, double* %charLength, align 8, !dbg !2563
  %161 = load double*, double** %1, align 8, !dbg !2564
  %162 = getelementptr inbounds double, double* %161, i64 2, !dbg !2564
  %163 = load double, double* %162, align 8, !dbg !2564
  %164 = load double*, double** %1, align 8, !dbg !2565
  %165 = getelementptr inbounds double, double* %164, i64 3, !dbg !2565
  %166 = load double, double* %165, align 8, !dbg !2565
  %167 = load double*, double** %1, align 8, !dbg !2566
  %168 = getelementptr inbounds double, double* %167, i64 7, !dbg !2566
  %169 = load double, double* %168, align 8, !dbg !2566
  %170 = load double*, double** %1, align 8, !dbg !2567
  %171 = getelementptr inbounds double, double* %170, i64 6, !dbg !2567
  %172 = load double, double* %171, align 8, !dbg !2567
  %173 = load double*, double** %2, align 8, !dbg !2568
  %174 = getelementptr inbounds double, double* %173, i64 2, !dbg !2568
  %175 = load double, double* %174, align 8, !dbg !2568
  %176 = load double*, double** %2, align 8, !dbg !2569
  %177 = getelementptr inbounds double, double* %176, i64 3, !dbg !2569
  %178 = load double, double* %177, align 8, !dbg !2569
  %179 = load double*, double** %2, align 8, !dbg !2570
  %180 = getelementptr inbounds double, double* %179, i64 7, !dbg !2570
  %181 = load double, double* %180, align 8, !dbg !2570
  %182 = load double*, double** %2, align 8, !dbg !2571
  %183 = getelementptr inbounds double, double* %182, i64 6, !dbg !2571
  %184 = load double, double* %183, align 8, !dbg !2571
  %185 = load double*, double** %3, align 8, !dbg !2572
  %186 = getelementptr inbounds double, double* %185, i64 2, !dbg !2572
  %187 = load double, double* %186, align 8, !dbg !2572
  %188 = load double*, double** %3, align 8, !dbg !2573
  %189 = getelementptr inbounds double, double* %188, i64 3, !dbg !2573
  %190 = load double, double* %189, align 8, !dbg !2573
  %191 = load double*, double** %3, align 8, !dbg !2574
  %192 = getelementptr inbounds double, double* %191, i64 7, !dbg !2574
  %193 = load double, double* %192, align 8, !dbg !2574
  %194 = load double*, double** %3, align 8, !dbg !2575
  %195 = getelementptr inbounds double, double* %194, i64 6, !dbg !2575
  %196 = load double, double* %195, align 8, !dbg !2575
  %197 = call double @_ZL8AreaFacedddddddddddd(double %163, double %166, double %169, double %172, double %175, double %178, double %181, double %184, double %187, double %190, double %193, double %196), !dbg !2576
  store double %197, double* %a, align 8, !dbg !2577
  %198 = call dereferenceable(8) double* @_ZSt3maxIdERKT_S2_S2_(double* dereferenceable(8) %a, double* dereferenceable(8) %charLength), !dbg !2578
  %199 = load double, double* %198, align 8, !dbg !2578
  store double %199, double* %charLength, align 8, !dbg !2579
  %200 = load double*, double** %1, align 8, !dbg !2580
  %201 = getelementptr inbounds double, double* %200, i64 3, !dbg !2580
  %202 = load double, double* %201, align 8, !dbg !2580
  %203 = load double*, double** %1, align 8, !dbg !2581
  %204 = getelementptr inbounds double, double* %203, i64 0, !dbg !2581
  %205 = load double, double* %204, align 8, !dbg !2581
  %206 = load double*, double** %1, align 8, !dbg !2582
  %207 = getelementptr inbounds double, double* %206, i64 4, !dbg !2582
  %208 = load double, double* %207, align 8, !dbg !2582
  %209 = load double*, double** %1, align 8, !dbg !2583
  %210 = getelementptr inbounds double, double* %209, i64 7, !dbg !2583
  %211 = load double, double* %210, align 8, !dbg !2583
  %212 = load double*, double** %2, align 8, !dbg !2584
  %213 = getelementptr inbounds double, double* %212, i64 3, !dbg !2584
  %214 = load double, double* %213, align 8, !dbg !2584
  %215 = load double*, double** %2, align 8, !dbg !2585
  %216 = getelementptr inbounds double, double* %215, i64 0, !dbg !2585
  %217 = load double, double* %216, align 8, !dbg !2585
  %218 = load double*, double** %2, align 8, !dbg !2586
  %219 = getelementptr inbounds double, double* %218, i64 4, !dbg !2586
  %220 = load double, double* %219, align 8, !dbg !2586
  %221 = load double*, double** %2, align 8, !dbg !2587
  %222 = getelementptr inbounds double, double* %221, i64 7, !dbg !2587
  %223 = load double, double* %222, align 8, !dbg !2587
  %224 = load double*, double** %3, align 8, !dbg !2588
  %225 = getelementptr inbounds double, double* %224, i64 3, !dbg !2588
  %226 = load double, double* %225, align 8, !dbg !2588
  %227 = load double*, double** %3, align 8, !dbg !2589
  %228 = getelementptr inbounds double, double* %227, i64 0, !dbg !2589
  %229 = load double, double* %228, align 8, !dbg !2589
  %230 = load double*, double** %3, align 8, !dbg !2590
  %231 = getelementptr inbounds double, double* %230, i64 4, !dbg !2590
  %232 = load double, double* %231, align 8, !dbg !2590
  %233 = load double*, double** %3, align 8, !dbg !2591
  %234 = getelementptr inbounds double, double* %233, i64 7, !dbg !2591
  %235 = load double, double* %234, align 8, !dbg !2591
  %236 = call double @_ZL8AreaFacedddddddddddd(double %202, double %205, double %208, double %211, double %214, double %217, double %220, double %223, double %226, double %229, double %232, double %235), !dbg !2592
  store double %236, double* %a, align 8, !dbg !2593
  %237 = call dereferenceable(8) double* @_ZSt3maxIdERKT_S2_S2_(double* dereferenceable(8) %a, double* dereferenceable(8) %charLength), !dbg !2594
  %238 = load double, double* %237, align 8, !dbg !2594
  store double %238, double* %charLength, align 8, !dbg !2595
  %239 = load double, double* %4, align 8, !dbg !2596
  %240 = fmul double 4.000000e+00, %239, !dbg !2597
  %241 = load double, double* %charLength, align 8, !dbg !2598
  %242 = call double @_Z4SQRTd(double %241), !dbg !2599
  %243 = fdiv double %240, %242, !dbg !2600
  store double %243, double* %charLength, align 8, !dbg !2601
  %244 = load double, double* %charLength, align 8, !dbg !2602
  ret double %244, !dbg !2603
}

; Function Attrs: nounwind uwtable
define linkonce_odr dereferenceable(8) double* @_ZN6Domain6arealgEi(%class.Domain* %this, i32 %idx) #6 comdat align 2 !dbg !1196 {
  %1 = alloca %class.Domain*, align 8
  %2 = alloca i32, align 4
  store %class.Domain* %this, %class.Domain** %1, align 8
  call void @llvm.dbg.declare(metadata %class.Domain** %1, metadata !2604, metadata !1862), !dbg !2605
  store i32 %idx, i32* %2, align 4
  call void @llvm.dbg.declare(metadata i32* %2, metadata !2606, metadata !1862), !dbg !2607
  %3 = load %class.Domain*, %class.Domain** %1, align 8
  %4 = getelementptr inbounds %class.Domain, %class.Domain* %3, i32 0, i32 48, !dbg !2608
  %5 = load i32, i32* %2, align 4, !dbg !2609
  %6 = sext i32 %5 to i64, !dbg !2609
  %7 = call dereferenceable(8) double* @_ZNSt6vectorIdSaIdEEixEm(%"class.std::vector"* %4, i64 %6), !dbg !2608
  ret double* %7, !dbg !2610
}

; Function Attrs: nounwind uwtable
define linkonce_odr dereferenceable(8) double* @_ZN6Domain2xdEi(%class.Domain* %this, i32 %idx) #6 comdat align 2 !dbg !1197 {
  %1 = alloca %class.Domain*, align 8
  %2 = alloca i32, align 4
  store %class.Domain* %this, %class.Domain** %1, align 8
  call void @llvm.dbg.declare(metadata %class.Domain** %1, metadata !2611, metadata !1862), !dbg !2612
  store i32 %idx, i32* %2, align 4
  call void @llvm.dbg.declare(metadata i32* %2, metadata !2613, metadata !1862), !dbg !2614
  %3 = load %class.Domain*, %class.Domain** %1, align 8
  %4 = getelementptr inbounds %class.Domain, %class.Domain* %3, i32 0, i32 3, !dbg !2615
  %5 = load i32, i32* %2, align 4, !dbg !2616
  %6 = sext i32 %5 to i64, !dbg !2616
  %7 = call dereferenceable(8) double* @_ZNSt6vectorIdSaIdEEixEm(%"class.std::vector"* %4, i64 %6), !dbg !2615
  ret double* %7, !dbg !2617
}

; Function Attrs: nounwind uwtable
define linkonce_odr dereferenceable(8) double* @_ZN6Domain2ydEi(%class.Domain* %this, i32 %idx) #6 comdat align 2 !dbg !1198 {
  %1 = alloca %class.Domain*, align 8
  %2 = alloca i32, align 4
  store %class.Domain* %this, %class.Domain** %1, align 8
  call void @llvm.dbg.declare(metadata %class.Domain** %1, metadata !2618, metadata !1862), !dbg !2619
  store i32 %idx, i32* %2, align 4
  call void @llvm.dbg.declare(metadata i32* %2, metadata !2620, metadata !1862), !dbg !2621
  %3 = load %class.Domain*, %class.Domain** %1, align 8
  %4 = getelementptr inbounds %class.Domain, %class.Domain* %3, i32 0, i32 4, !dbg !2622
  %5 = load i32, i32* %2, align 4, !dbg !2623
  %6 = sext i32 %5 to i64, !dbg !2623
  %7 = call dereferenceable(8) double* @_ZNSt6vectorIdSaIdEEixEm(%"class.std::vector"* %4, i64 %6), !dbg !2622
  ret double* %7, !dbg !2624
}

; Function Attrs: nounwind uwtable
define linkonce_odr dereferenceable(8) double* @_ZN6Domain2zdEi(%class.Domain* %this, i32 %idx) #6 comdat align 2 !dbg !1199 {
  %1 = alloca %class.Domain*, align 8
  %2 = alloca i32, align 4
  store %class.Domain* %this, %class.Domain** %1, align 8
  call void @llvm.dbg.declare(metadata %class.Domain** %1, metadata !2625, metadata !1862), !dbg !2626
  store i32 %idx, i32* %2, align 4
  call void @llvm.dbg.declare(metadata i32* %2, metadata !2627, metadata !1862), !dbg !2628
  %3 = load %class.Domain*, %class.Domain** %1, align 8
  %4 = getelementptr inbounds %class.Domain, %class.Domain* %3, i32 0, i32 5, !dbg !2629
  %5 = load i32, i32* %2, align 4, !dbg !2630
  %6 = sext i32 %5 to i64, !dbg !2630
  %7 = call dereferenceable(8) double* @_ZNSt6vectorIdSaIdEEixEm(%"class.std::vector"* %4, i64 %6), !dbg !2629
  ret double* %7, !dbg !2631
}

; Function Attrs: inlinehint nounwind uwtable
define internal void @_ZL32CalcElemShapeFunctionDerivativesPKdS0_S0_PA8_dPd(double* %x, double* %y, double* %z, [8 x double]* %b, double* %volume) #4 !dbg !1200 {
  %1 = alloca double*, align 8
  %2 = alloca double*, align 8
  %3 = alloca double*, align 8
  %4 = alloca [8 x double]*, align 8
  %5 = alloca double*, align 8
  %x0 = alloca double, align 8
  %x1 = alloca double, align 8
  %x2 = alloca double, align 8
  %x3 = alloca double, align 8
  %x4 = alloca double, align 8
  %x5 = alloca double, align 8
  %x6 = alloca double, align 8
  %x7 = alloca double, align 8
  %y0 = alloca double, align 8
  %y1 = alloca double, align 8
  %y2 = alloca double, align 8
  %y3 = alloca double, align 8
  %y4 = alloca double, align 8
  %y5 = alloca double, align 8
  %y6 = alloca double, align 8
  %y7 = alloca double, align 8
  %z0 = alloca double, align 8
  %z1 = alloca double, align 8
  %z2 = alloca double, align 8
  %z3 = alloca double, align 8
  %z4 = alloca double, align 8
  %z5 = alloca double, align 8
  %z6 = alloca double, align 8
  %z7 = alloca double, align 8
  %fjxxi = alloca double, align 8
  %fjxet = alloca double, align 8
  %fjxze = alloca double, align 8
  %fjyxi = alloca double, align 8
  %fjyet = alloca double, align 8
  %fjyze = alloca double, align 8
  %fjzxi = alloca double, align 8
  %fjzet = alloca double, align 8
  %fjzze = alloca double, align 8
  %cjxxi = alloca double, align 8
  %cjxet = alloca double, align 8
  %cjxze = alloca double, align 8
  %cjyxi = alloca double, align 8
  %cjyet = alloca double, align 8
  %cjyze = alloca double, align 8
  %cjzxi = alloca double, align 8
  %cjzet = alloca double, align 8
  %cjzze = alloca double, align 8
  store double* %x, double** %1, align 8
  call void @llvm.dbg.declare(metadata double** %1, metadata !2632, metadata !1862), !dbg !2633
  store double* %y, double** %2, align 8
  call void @llvm.dbg.declare(metadata double** %2, metadata !2634, metadata !1862), !dbg !2635
  store double* %z, double** %3, align 8
  call void @llvm.dbg.declare(metadata double** %3, metadata !2636, metadata !1862), !dbg !2637
  store [8 x double]* %b, [8 x double]** %4, align 8
  call void @llvm.dbg.declare(metadata [8 x double]** %4, metadata !2638, metadata !1862), !dbg !2639
  store double* %volume, double** %5, align 8
  call void @llvm.dbg.declare(metadata double** %5, metadata !2640, metadata !1862), !dbg !2641
  call void @llvm.dbg.declare(metadata double* %x0, metadata !2642, metadata !1862), !dbg !2643
  %6 = load double*, double** %1, align 8, !dbg !2644
  %7 = getelementptr inbounds double, double* %6, i64 0, !dbg !2644
  %8 = load double, double* %7, align 8, !dbg !2644
  store double %8, double* %x0, align 8, !dbg !2643
  call void @llvm.dbg.declare(metadata double* %x1, metadata !2645, metadata !1862), !dbg !2646
  %9 = load double*, double** %1, align 8, !dbg !2647
  %10 = getelementptr inbounds double, double* %9, i64 1, !dbg !2647
  %11 = load double, double* %10, align 8, !dbg !2647
  store double %11, double* %x1, align 8, !dbg !2646
  call void @llvm.dbg.declare(metadata double* %x2, metadata !2648, metadata !1862), !dbg !2649
  %12 = load double*, double** %1, align 8, !dbg !2650
  %13 = getelementptr inbounds double, double* %12, i64 2, !dbg !2650
  %14 = load double, double* %13, align 8, !dbg !2650
  store double %14, double* %x2, align 8, !dbg !2649
  call void @llvm.dbg.declare(metadata double* %x3, metadata !2651, metadata !1862), !dbg !2652
  %15 = load double*, double** %1, align 8, !dbg !2653
  %16 = getelementptr inbounds double, double* %15, i64 3, !dbg !2653
  %17 = load double, double* %16, align 8, !dbg !2653
  store double %17, double* %x3, align 8, !dbg !2652
  call void @llvm.dbg.declare(metadata double* %x4, metadata !2654, metadata !1862), !dbg !2655
  %18 = load double*, double** %1, align 8, !dbg !2656
  %19 = getelementptr inbounds double, double* %18, i64 4, !dbg !2656
  %20 = load double, double* %19, align 8, !dbg !2656
  store double %20, double* %x4, align 8, !dbg !2655
  call void @llvm.dbg.declare(metadata double* %x5, metadata !2657, metadata !1862), !dbg !2658
  %21 = load double*, double** %1, align 8, !dbg !2659
  %22 = getelementptr inbounds double, double* %21, i64 5, !dbg !2659
  %23 = load double, double* %22, align 8, !dbg !2659
  store double %23, double* %x5, align 8, !dbg !2658
  call void @llvm.dbg.declare(metadata double* %x6, metadata !2660, metadata !1862), !dbg !2661
  %24 = load double*, double** %1, align 8, !dbg !2662
  %25 = getelementptr inbounds double, double* %24, i64 6, !dbg !2662
  %26 = load double, double* %25, align 8, !dbg !2662
  store double %26, double* %x6, align 8, !dbg !2661
  call void @llvm.dbg.declare(metadata double* %x7, metadata !2663, metadata !1862), !dbg !2664
  %27 = load double*, double** %1, align 8, !dbg !2665
  %28 = getelementptr inbounds double, double* %27, i64 7, !dbg !2665
  %29 = load double, double* %28, align 8, !dbg !2665
  store double %29, double* %x7, align 8, !dbg !2664
  call void @llvm.dbg.declare(metadata double* %y0, metadata !2666, metadata !1862), !dbg !2667
  %30 = load double*, double** %2, align 8, !dbg !2668
  %31 = getelementptr inbounds double, double* %30, i64 0, !dbg !2668
  %32 = load double, double* %31, align 8, !dbg !2668
  store double %32, double* %y0, align 8, !dbg !2667
  call void @llvm.dbg.declare(metadata double* %y1, metadata !2669, metadata !1862), !dbg !2670
  %33 = load double*, double** %2, align 8, !dbg !2671
  %34 = getelementptr inbounds double, double* %33, i64 1, !dbg !2671
  %35 = load double, double* %34, align 8, !dbg !2671
  store double %35, double* %y1, align 8, !dbg !2670
  call void @llvm.dbg.declare(metadata double* %y2, metadata !2672, metadata !1862), !dbg !2673
  %36 = load double*, double** %2, align 8, !dbg !2674
  %37 = getelementptr inbounds double, double* %36, i64 2, !dbg !2674
  %38 = load double, double* %37, align 8, !dbg !2674
  store double %38, double* %y2, align 8, !dbg !2673
  call void @llvm.dbg.declare(metadata double* %y3, metadata !2675, metadata !1862), !dbg !2676
  %39 = load double*, double** %2, align 8, !dbg !2677
  %40 = getelementptr inbounds double, double* %39, i64 3, !dbg !2677
  %41 = load double, double* %40, align 8, !dbg !2677
  store double %41, double* %y3, align 8, !dbg !2676
  call void @llvm.dbg.declare(metadata double* %y4, metadata !2678, metadata !1862), !dbg !2679
  %42 = load double*, double** %2, align 8, !dbg !2680
  %43 = getelementptr inbounds double, double* %42, i64 4, !dbg !2680
  %44 = load double, double* %43, align 8, !dbg !2680
  store double %44, double* %y4, align 8, !dbg !2679
  call void @llvm.dbg.declare(metadata double* %y5, metadata !2681, metadata !1862), !dbg !2682
  %45 = load double*, double** %2, align 8, !dbg !2683
  %46 = getelementptr inbounds double, double* %45, i64 5, !dbg !2683
  %47 = load double, double* %46, align 8, !dbg !2683
  store double %47, double* %y5, align 8, !dbg !2682
  call void @llvm.dbg.declare(metadata double* %y6, metadata !2684, metadata !1862), !dbg !2685
  %48 = load double*, double** %2, align 8, !dbg !2686
  %49 = getelementptr inbounds double, double* %48, i64 6, !dbg !2686
  %50 = load double, double* %49, align 8, !dbg !2686
  store double %50, double* %y6, align 8, !dbg !2685
  call void @llvm.dbg.declare(metadata double* %y7, metadata !2687, metadata !1862), !dbg !2688
  %51 = load double*, double** %2, align 8, !dbg !2689
  %52 = getelementptr inbounds double, double* %51, i64 7, !dbg !2689
  %53 = load double, double* %52, align 8, !dbg !2689
  store double %53, double* %y7, align 8, !dbg !2688
  call void @llvm.dbg.declare(metadata double* %z0, metadata !2690, metadata !1862), !dbg !2691
  %54 = load double*, double** %3, align 8, !dbg !2692
  %55 = getelementptr inbounds double, double* %54, i64 0, !dbg !2692
  %56 = load double, double* %55, align 8, !dbg !2692
  store double %56, double* %z0, align 8, !dbg !2691
  call void @llvm.dbg.declare(metadata double* %z1, metadata !2693, metadata !1862), !dbg !2694
  %57 = load double*, double** %3, align 8, !dbg !2695
  %58 = getelementptr inbounds double, double* %57, i64 1, !dbg !2695
  %59 = load double, double* %58, align 8, !dbg !2695
  store double %59, double* %z1, align 8, !dbg !2694
  call void @llvm.dbg.declare(metadata double* %z2, metadata !2696, metadata !1862), !dbg !2697
  %60 = load double*, double** %3, align 8, !dbg !2698
  %61 = getelementptr inbounds double, double* %60, i64 2, !dbg !2698
  %62 = load double, double* %61, align 8, !dbg !2698
  store double %62, double* %z2, align 8, !dbg !2697
  call void @llvm.dbg.declare(metadata double* %z3, metadata !2699, metadata !1862), !dbg !2700
  %63 = load double*, double** %3, align 8, !dbg !2701
  %64 = getelementptr inbounds double, double* %63, i64 3, !dbg !2701
  %65 = load double, double* %64, align 8, !dbg !2701
  store double %65, double* %z3, align 8, !dbg !2700
  call void @llvm.dbg.declare(metadata double* %z4, metadata !2702, metadata !1862), !dbg !2703
  %66 = load double*, double** %3, align 8, !dbg !2704
  %67 = getelementptr inbounds double, double* %66, i64 4, !dbg !2704
  %68 = load double, double* %67, align 8, !dbg !2704
  store double %68, double* %z4, align 8, !dbg !2703
  call void @llvm.dbg.declare(metadata double* %z5, metadata !2705, metadata !1862), !dbg !2706
  %69 = load double*, double** %3, align 8, !dbg !2707
  %70 = getelementptr inbounds double, double* %69, i64 5, !dbg !2707
  %71 = load double, double* %70, align 8, !dbg !2707
  store double %71, double* %z5, align 8, !dbg !2706
  call void @llvm.dbg.declare(metadata double* %z6, metadata !2708, metadata !1862), !dbg !2709
  %72 = load double*, double** %3, align 8, !dbg !2710
  %73 = getelementptr inbounds double, double* %72, i64 6, !dbg !2710
  %74 = load double, double* %73, align 8, !dbg !2710
  store double %74, double* %z6, align 8, !dbg !2709
  call void @llvm.dbg.declare(metadata double* %z7, metadata !2711, metadata !1862), !dbg !2712
  %75 = load double*, double** %3, align 8, !dbg !2713
  %76 = getelementptr inbounds double, double* %75, i64 7, !dbg !2713
  %77 = load double, double* %76, align 8, !dbg !2713
  store double %77, double* %z7, align 8, !dbg !2712
  call void @llvm.dbg.declare(metadata double* %fjxxi, metadata !2714, metadata !1862), !dbg !2715
  call void @llvm.dbg.declare(metadata double* %fjxet, metadata !2716, metadata !1862), !dbg !2717
  call void @llvm.dbg.declare(metadata double* %fjxze, metadata !2718, metadata !1862), !dbg !2719
  call void @llvm.dbg.declare(metadata double* %fjyxi, metadata !2720, metadata !1862), !dbg !2721
  call void @llvm.dbg.declare(metadata double* %fjyet, metadata !2722, metadata !1862), !dbg !2723
  call void @llvm.dbg.declare(metadata double* %fjyze, metadata !2724, metadata !1862), !dbg !2725
  call void @llvm.dbg.declare(metadata double* %fjzxi, metadata !2726, metadata !1862), !dbg !2727
  call void @llvm.dbg.declare(metadata double* %fjzet, metadata !2728, metadata !1862), !dbg !2729
  call void @llvm.dbg.declare(metadata double* %fjzze, metadata !2730, metadata !1862), !dbg !2731
  call void @llvm.dbg.declare(metadata double* %cjxxi, metadata !2732, metadata !1862), !dbg !2733
  call void @llvm.dbg.declare(metadata double* %cjxet, metadata !2734, metadata !1862), !dbg !2735
  call void @llvm.dbg.declare(metadata double* %cjxze, metadata !2736, metadata !1862), !dbg !2737
  call void @llvm.dbg.declare(metadata double* %cjyxi, metadata !2738, metadata !1862), !dbg !2739
  call void @llvm.dbg.declare(metadata double* %cjyet, metadata !2740, metadata !1862), !dbg !2741
  call void @llvm.dbg.declare(metadata double* %cjyze, metadata !2742, metadata !1862), !dbg !2743
  call void @llvm.dbg.declare(metadata double* %cjzxi, metadata !2744, metadata !1862), !dbg !2745
  call void @llvm.dbg.declare(metadata double* %cjzet, metadata !2746, metadata !1862), !dbg !2747
  call void @llvm.dbg.declare(metadata double* %cjzze, metadata !2748, metadata !1862), !dbg !2749
  %78 = load double, double* %x6, align 8, !dbg !2750
  %79 = load double, double* %x0, align 8, !dbg !2751
  %80 = fsub double %78, %79, !dbg !2752
  %81 = load double, double* %x5, align 8, !dbg !2753
  %82 = load double, double* %x3, align 8, !dbg !2754
  %83 = fsub double %81, %82, !dbg !2755
  %84 = fadd double %80, %83, !dbg !2756
  %85 = load double, double* %x7, align 8, !dbg !2757
  %86 = load double, double* %x1, align 8, !dbg !2758
  %87 = fsub double %85, %86, !dbg !2759
  %88 = fsub double %84, %87, !dbg !2760
  %89 = load double, double* %x4, align 8, !dbg !2761
  %90 = load double, double* %x2, align 8, !dbg !2762
  %91 = fsub double %89, %90, !dbg !2763
  %92 = fsub double %88, %91, !dbg !2764
  %93 = fmul double 1.250000e-01, %92, !dbg !2765
  store double %93, double* %fjxxi, align 8, !dbg !2766
  %94 = load double, double* %x6, align 8, !dbg !2767
  %95 = load double, double* %x0, align 8, !dbg !2768
  %96 = fsub double %94, %95, !dbg !2769
  %97 = load double, double* %x5, align 8, !dbg !2770
  %98 = load double, double* %x3, align 8, !dbg !2771
  %99 = fsub double %97, %98, !dbg !2772
  %100 = fsub double %96, %99, !dbg !2773
  %101 = load double, double* %x7, align 8, !dbg !2774
  %102 = load double, double* %x1, align 8, !dbg !2775
  %103 = fsub double %101, %102, !dbg !2776
  %104 = fadd double %100, %103, !dbg !2777
  %105 = load double, double* %x4, align 8, !dbg !2778
  %106 = load double, double* %x2, align 8, !dbg !2779
  %107 = fsub double %105, %106, !dbg !2780
  %108 = fsub double %104, %107, !dbg !2781
  %109 = fmul double 1.250000e-01, %108, !dbg !2782
  store double %109, double* %fjxet, align 8, !dbg !2783
  %110 = load double, double* %x6, align 8, !dbg !2784
  %111 = load double, double* %x0, align 8, !dbg !2785
  %112 = fsub double %110, %111, !dbg !2786
  %113 = load double, double* %x5, align 8, !dbg !2787
  %114 = load double, double* %x3, align 8, !dbg !2788
  %115 = fsub double %113, %114, !dbg !2789
  %116 = fadd double %112, %115, !dbg !2790
  %117 = load double, double* %x7, align 8, !dbg !2791
  %118 = load double, double* %x1, align 8, !dbg !2792
  %119 = fsub double %117, %118, !dbg !2793
  %120 = fadd double %116, %119, !dbg !2794
  %121 = load double, double* %x4, align 8, !dbg !2795
  %122 = load double, double* %x2, align 8, !dbg !2796
  %123 = fsub double %121, %122, !dbg !2797
  %124 = fadd double %120, %123, !dbg !2798
  %125 = fmul double 1.250000e-01, %124, !dbg !2799
  store double %125, double* %fjxze, align 8, !dbg !2800
  %126 = load double, double* %y6, align 8, !dbg !2801
  %127 = load double, double* %y0, align 8, !dbg !2802
  %128 = fsub double %126, %127, !dbg !2803
  %129 = load double, double* %y5, align 8, !dbg !2804
  %130 = load double, double* %y3, align 8, !dbg !2805
  %131 = fsub double %129, %130, !dbg !2806
  %132 = fadd double %128, %131, !dbg !2807
  %133 = load double, double* %y7, align 8, !dbg !2808
  %134 = load double, double* %y1, align 8, !dbg !2809
  %135 = fsub double %133, %134, !dbg !2810
  %136 = fsub double %132, %135, !dbg !2811
  %137 = load double, double* %y4, align 8, !dbg !2812
  %138 = load double, double* %y2, align 8, !dbg !2813
  %139 = fsub double %137, %138, !dbg !2814
  %140 = fsub double %136, %139, !dbg !2815
  %141 = fmul double 1.250000e-01, %140, !dbg !2816
  store double %141, double* %fjyxi, align 8, !dbg !2817
  %142 = load double, double* %y6, align 8, !dbg !2818
  %143 = load double, double* %y0, align 8, !dbg !2819
  %144 = fsub double %142, %143, !dbg !2820
  %145 = load double, double* %y5, align 8, !dbg !2821
  %146 = load double, double* %y3, align 8, !dbg !2822
  %147 = fsub double %145, %146, !dbg !2823
  %148 = fsub double %144, %147, !dbg !2824
  %149 = load double, double* %y7, align 8, !dbg !2825
  %150 = load double, double* %y1, align 8, !dbg !2826
  %151 = fsub double %149, %150, !dbg !2827
  %152 = fadd double %148, %151, !dbg !2828
  %153 = load double, double* %y4, align 8, !dbg !2829
  %154 = load double, double* %y2, align 8, !dbg !2830
  %155 = fsub double %153, %154, !dbg !2831
  %156 = fsub double %152, %155, !dbg !2832
  %157 = fmul double 1.250000e-01, %156, !dbg !2833
  store double %157, double* %fjyet, align 8, !dbg !2834
  %158 = load double, double* %y6, align 8, !dbg !2835
  %159 = load double, double* %y0, align 8, !dbg !2836
  %160 = fsub double %158, %159, !dbg !2837
  %161 = load double, double* %y5, align 8, !dbg !2838
  %162 = load double, double* %y3, align 8, !dbg !2839
  %163 = fsub double %161, %162, !dbg !2840
  %164 = fadd double %160, %163, !dbg !2841
  %165 = load double, double* %y7, align 8, !dbg !2842
  %166 = load double, double* %y1, align 8, !dbg !2843
  %167 = fsub double %165, %166, !dbg !2844
  %168 = fadd double %164, %167, !dbg !2845
  %169 = load double, double* %y4, align 8, !dbg !2846
  %170 = load double, double* %y2, align 8, !dbg !2847
  %171 = fsub double %169, %170, !dbg !2848
  %172 = fadd double %168, %171, !dbg !2849
  %173 = fmul double 1.250000e-01, %172, !dbg !2850
  store double %173, double* %fjyze, align 8, !dbg !2851
  %174 = load double, double* %z6, align 8, !dbg !2852
  %175 = load double, double* %z0, align 8, !dbg !2853
  %176 = fsub double %174, %175, !dbg !2854
  %177 = load double, double* %z5, align 8, !dbg !2855
  %178 = load double, double* %z3, align 8, !dbg !2856
  %179 = fsub double %177, %178, !dbg !2857
  %180 = fadd double %176, %179, !dbg !2858
  %181 = load double, double* %z7, align 8, !dbg !2859
  %182 = load double, double* %z1, align 8, !dbg !2860
  %183 = fsub double %181, %182, !dbg !2861
  %184 = fsub double %180, %183, !dbg !2862
  %185 = load double, double* %z4, align 8, !dbg !2863
  %186 = load double, double* %z2, align 8, !dbg !2864
  %187 = fsub double %185, %186, !dbg !2865
  %188 = fsub double %184, %187, !dbg !2866
  %189 = fmul double 1.250000e-01, %188, !dbg !2867
  store double %189, double* %fjzxi, align 8, !dbg !2868
  %190 = load double, double* %z6, align 8, !dbg !2869
  %191 = load double, double* %z0, align 8, !dbg !2870
  %192 = fsub double %190, %191, !dbg !2871
  %193 = load double, double* %z5, align 8, !dbg !2872
  %194 = load double, double* %z3, align 8, !dbg !2873
  %195 = fsub double %193, %194, !dbg !2874
  %196 = fsub double %192, %195, !dbg !2875
  %197 = load double, double* %z7, align 8, !dbg !2876
  %198 = load double, double* %z1, align 8, !dbg !2877
  %199 = fsub double %197, %198, !dbg !2878
  %200 = fadd double %196, %199, !dbg !2879
  %201 = load double, double* %z4, align 8, !dbg !2880
  %202 = load double, double* %z2, align 8, !dbg !2881
  %203 = fsub double %201, %202, !dbg !2882
  %204 = fsub double %200, %203, !dbg !2883
  %205 = fmul double 1.250000e-01, %204, !dbg !2884
  store double %205, double* %fjzet, align 8, !dbg !2885
  %206 = load double, double* %z6, align 8, !dbg !2886
  %207 = load double, double* %z0, align 8, !dbg !2887
  %208 = fsub double %206, %207, !dbg !2888
  %209 = load double, double* %z5, align 8, !dbg !2889
  %210 = load double, double* %z3, align 8, !dbg !2890
  %211 = fsub double %209, %210, !dbg !2891
  %212 = fadd double %208, %211, !dbg !2892
  %213 = load double, double* %z7, align 8, !dbg !2893
  %214 = load double, double* %z1, align 8, !dbg !2894
  %215 = fsub double %213, %214, !dbg !2895
  %216 = fadd double %212, %215, !dbg !2896
  %217 = load double, double* %z4, align 8, !dbg !2897
  %218 = load double, double* %z2, align 8, !dbg !2898
  %219 = fsub double %217, %218, !dbg !2899
  %220 = fadd double %216, %219, !dbg !2900
  %221 = fmul double 1.250000e-01, %220, !dbg !2901
  store double %221, double* %fjzze, align 8, !dbg !2902
  %222 = load double, double* %fjyet, align 8, !dbg !2903
  %223 = load double, double* %fjzze, align 8, !dbg !2904
  %224 = fmul double %222, %223, !dbg !2905
  %225 = load double, double* %fjzet, align 8, !dbg !2906
  %226 = load double, double* %fjyze, align 8, !dbg !2907
  %227 = fmul double %225, %226, !dbg !2908
  %228 = fsub double %224, %227, !dbg !2909
  store double %228, double* %cjxxi, align 8, !dbg !2910
  %229 = load double, double* %fjyxi, align 8, !dbg !2911
  %230 = load double, double* %fjzze, align 8, !dbg !2912
  %231 = fmul double %229, %230, !dbg !2913
  %232 = fsub double -0.000000e+00, %231, !dbg !2914
  %233 = load double, double* %fjzxi, align 8, !dbg !2915
  %234 = load double, double* %fjyze, align 8, !dbg !2916
  %235 = fmul double %233, %234, !dbg !2917
  %236 = fadd double %232, %235, !dbg !2918
  store double %236, double* %cjxet, align 8, !dbg !2919
  %237 = load double, double* %fjyxi, align 8, !dbg !2920
  %238 = load double, double* %fjzet, align 8, !dbg !2921
  %239 = fmul double %237, %238, !dbg !2922
  %240 = load double, double* %fjzxi, align 8, !dbg !2923
  %241 = load double, double* %fjyet, align 8, !dbg !2924
  %242 = fmul double %240, %241, !dbg !2925
  %243 = fsub double %239, %242, !dbg !2926
  store double %243, double* %cjxze, align 8, !dbg !2927
  %244 = load double, double* %fjxet, align 8, !dbg !2928
  %245 = load double, double* %fjzze, align 8, !dbg !2929
  %246 = fmul double %244, %245, !dbg !2930
  %247 = fsub double -0.000000e+00, %246, !dbg !2931
  %248 = load double, double* %fjzet, align 8, !dbg !2932
  %249 = load double, double* %fjxze, align 8, !dbg !2933
  %250 = fmul double %248, %249, !dbg !2934
  %251 = fadd double %247, %250, !dbg !2935
  store double %251, double* %cjyxi, align 8, !dbg !2936
  %252 = load double, double* %fjxxi, align 8, !dbg !2937
  %253 = load double, double* %fjzze, align 8, !dbg !2938
  %254 = fmul double %252, %253, !dbg !2939
  %255 = load double, double* %fjzxi, align 8, !dbg !2940
  %256 = load double, double* %fjxze, align 8, !dbg !2941
  %257 = fmul double %255, %256, !dbg !2942
  %258 = fsub double %254, %257, !dbg !2943
  store double %258, double* %cjyet, align 8, !dbg !2944
  %259 = load double, double* %fjxxi, align 8, !dbg !2945
  %260 = load double, double* %fjzet, align 8, !dbg !2946
  %261 = fmul double %259, %260, !dbg !2947
  %262 = fsub double -0.000000e+00, %261, !dbg !2948
  %263 = load double, double* %fjzxi, align 8, !dbg !2949
  %264 = load double, double* %fjxet, align 8, !dbg !2950
  %265 = fmul double %263, %264, !dbg !2951
  %266 = fadd double %262, %265, !dbg !2952
  store double %266, double* %cjyze, align 8, !dbg !2953
  %267 = load double, double* %fjxet, align 8, !dbg !2954
  %268 = load double, double* %fjyze, align 8, !dbg !2955
  %269 = fmul double %267, %268, !dbg !2956
  %270 = load double, double* %fjyet, align 8, !dbg !2957
  %271 = load double, double* %fjxze, align 8, !dbg !2958
  %272 = fmul double %270, %271, !dbg !2959
  %273 = fsub double %269, %272, !dbg !2960
  store double %273, double* %cjzxi, align 8, !dbg !2961
  %274 = load double, double* %fjxxi, align 8, !dbg !2962
  %275 = load double, double* %fjyze, align 8, !dbg !2963
  %276 = fmul double %274, %275, !dbg !2964
  %277 = fsub double -0.000000e+00, %276, !dbg !2965
  %278 = load double, double* %fjyxi, align 8, !dbg !2966
  %279 = load double, double* %fjxze, align 8, !dbg !2967
  %280 = fmul double %278, %279, !dbg !2968
  %281 = fadd double %277, %280, !dbg !2969
  store double %281, double* %cjzet, align 8, !dbg !2970
  %282 = load double, double* %fjxxi, align 8, !dbg !2971
  %283 = load double, double* %fjyet, align 8, !dbg !2972
  %284 = fmul double %282, %283, !dbg !2973
  %285 = load double, double* %fjyxi, align 8, !dbg !2974
  %286 = load double, double* %fjxet, align 8, !dbg !2975
  %287 = fmul double %285, %286, !dbg !2976
  %288 = fsub double %284, %287, !dbg !2977
  store double %288, double* %cjzze, align 8, !dbg !2978
  %289 = load double, double* %cjxxi, align 8, !dbg !2979
  %290 = fsub double -0.000000e+00, %289, !dbg !2980
  %291 = load double, double* %cjxet, align 8, !dbg !2981
  %292 = fsub double %290, %291, !dbg !2982
  %293 = load double, double* %cjxze, align 8, !dbg !2983
  %294 = fsub double %292, %293, !dbg !2984
  %295 = load [8 x double]*, [8 x double]** %4, align 8, !dbg !2985
  %296 = getelementptr inbounds [8 x double], [8 x double]* %295, i64 0, !dbg !2985
  %297 = getelementptr inbounds [8 x double], [8 x double]* %296, i64 0, i64 0, !dbg !2985
  store double %294, double* %297, align 8, !dbg !2986
  %298 = load double, double* %cjxxi, align 8, !dbg !2987
  %299 = load double, double* %cjxet, align 8, !dbg !2988
  %300 = fsub double %298, %299, !dbg !2989
  %301 = load double, double* %cjxze, align 8, !dbg !2990
  %302 = fsub double %300, %301, !dbg !2991
  %303 = load [8 x double]*, [8 x double]** %4, align 8, !dbg !2992
  %304 = getelementptr inbounds [8 x double], [8 x double]* %303, i64 0, !dbg !2992
  %305 = getelementptr inbounds [8 x double], [8 x double]* %304, i64 0, i64 1, !dbg !2992
  store double %302, double* %305, align 8, !dbg !2993
  %306 = load double, double* %cjxxi, align 8, !dbg !2994
  %307 = load double, double* %cjxet, align 8, !dbg !2995
  %308 = fadd double %306, %307, !dbg !2996
  %309 = load double, double* %cjxze, align 8, !dbg !2997
  %310 = fsub double %308, %309, !dbg !2998
  %311 = load [8 x double]*, [8 x double]** %4, align 8, !dbg !2999
  %312 = getelementptr inbounds [8 x double], [8 x double]* %311, i64 0, !dbg !2999
  %313 = getelementptr inbounds [8 x double], [8 x double]* %312, i64 0, i64 2, !dbg !2999
  store double %310, double* %313, align 8, !dbg !3000
  %314 = load double, double* %cjxxi, align 8, !dbg !3001
  %315 = fsub double -0.000000e+00, %314, !dbg !3002
  %316 = load double, double* %cjxet, align 8, !dbg !3003
  %317 = fadd double %315, %316, !dbg !3004
  %318 = load double, double* %cjxze, align 8, !dbg !3005
  %319 = fsub double %317, %318, !dbg !3006
  %320 = load [8 x double]*, [8 x double]** %4, align 8, !dbg !3007
  %321 = getelementptr inbounds [8 x double], [8 x double]* %320, i64 0, !dbg !3007
  %322 = getelementptr inbounds [8 x double], [8 x double]* %321, i64 0, i64 3, !dbg !3007
  store double %319, double* %322, align 8, !dbg !3008
  %323 = load [8 x double]*, [8 x double]** %4, align 8, !dbg !3009
  %324 = getelementptr inbounds [8 x double], [8 x double]* %323, i64 0, !dbg !3009
  %325 = getelementptr inbounds [8 x double], [8 x double]* %324, i64 0, i64 2, !dbg !3009
  %326 = load double, double* %325, align 8, !dbg !3009
  %327 = fsub double -0.000000e+00, %326, !dbg !3010
  %328 = load [8 x double]*, [8 x double]** %4, align 8, !dbg !3011
  %329 = getelementptr inbounds [8 x double], [8 x double]* %328, i64 0, !dbg !3011
  %330 = getelementptr inbounds [8 x double], [8 x double]* %329, i64 0, i64 4, !dbg !3011
  store double %327, double* %330, align 8, !dbg !3012
  %331 = load [8 x double]*, [8 x double]** %4, align 8, !dbg !3013
  %332 = getelementptr inbounds [8 x double], [8 x double]* %331, i64 0, !dbg !3013
  %333 = getelementptr inbounds [8 x double], [8 x double]* %332, i64 0, i64 3, !dbg !3013
  %334 = load double, double* %333, align 8, !dbg !3013
  %335 = fsub double -0.000000e+00, %334, !dbg !3014
  %336 = load [8 x double]*, [8 x double]** %4, align 8, !dbg !3015
  %337 = getelementptr inbounds [8 x double], [8 x double]* %336, i64 0, !dbg !3015
  %338 = getelementptr inbounds [8 x double], [8 x double]* %337, i64 0, i64 5, !dbg !3015
  store double %335, double* %338, align 8, !dbg !3016
  %339 = load [8 x double]*, [8 x double]** %4, align 8, !dbg !3017
  %340 = getelementptr inbounds [8 x double], [8 x double]* %339, i64 0, !dbg !3017
  %341 = getelementptr inbounds [8 x double], [8 x double]* %340, i64 0, i64 0, !dbg !3017
  %342 = load double, double* %341, align 8, !dbg !3017
  %343 = fsub double -0.000000e+00, %342, !dbg !3018
  %344 = load [8 x double]*, [8 x double]** %4, align 8, !dbg !3019
  %345 = getelementptr inbounds [8 x double], [8 x double]* %344, i64 0, !dbg !3019
  %346 = getelementptr inbounds [8 x double], [8 x double]* %345, i64 0, i64 6, !dbg !3019
  store double %343, double* %346, align 8, !dbg !3020
  %347 = load [8 x double]*, [8 x double]** %4, align 8, !dbg !3021
  %348 = getelementptr inbounds [8 x double], [8 x double]* %347, i64 0, !dbg !3021
  %349 = getelementptr inbounds [8 x double], [8 x double]* %348, i64 0, i64 1, !dbg !3021
  %350 = load double, double* %349, align 8, !dbg !3021
  %351 = fsub double -0.000000e+00, %350, !dbg !3022
  %352 = load [8 x double]*, [8 x double]** %4, align 8, !dbg !3023
  %353 = getelementptr inbounds [8 x double], [8 x double]* %352, i64 0, !dbg !3023
  %354 = getelementptr inbounds [8 x double], [8 x double]* %353, i64 0, i64 7, !dbg !3023
  store double %351, double* %354, align 8, !dbg !3024
  %355 = load double, double* %cjyxi, align 8, !dbg !3025
  %356 = fsub double -0.000000e+00, %355, !dbg !3026
  %357 = load double, double* %cjyet, align 8, !dbg !3027
  %358 = fsub double %356, %357, !dbg !3028
  %359 = load double, double* %cjyze, align 8, !dbg !3029
  %360 = fsub double %358, %359, !dbg !3030
  %361 = load [8 x double]*, [8 x double]** %4, align 8, !dbg !3031
  %362 = getelementptr inbounds [8 x double], [8 x double]* %361, i64 1, !dbg !3031
  %363 = getelementptr inbounds [8 x double], [8 x double]* %362, i64 0, i64 0, !dbg !3031
  store double %360, double* %363, align 8, !dbg !3032
  %364 = load double, double* %cjyxi, align 8, !dbg !3033
  %365 = load double, double* %cjyet, align 8, !dbg !3034
  %366 = fsub double %364, %365, !dbg !3035
  %367 = load double, double* %cjyze, align 8, !dbg !3036
  %368 = fsub double %366, %367, !dbg !3037
  %369 = load [8 x double]*, [8 x double]** %4, align 8, !dbg !3038
  %370 = getelementptr inbounds [8 x double], [8 x double]* %369, i64 1, !dbg !3038
  %371 = getelementptr inbounds [8 x double], [8 x double]* %370, i64 0, i64 1, !dbg !3038
  store double %368, double* %371, align 8, !dbg !3039
  %372 = load double, double* %cjyxi, align 8, !dbg !3040
  %373 = load double, double* %cjyet, align 8, !dbg !3041
  %374 = fadd double %372, %373, !dbg !3042
  %375 = load double, double* %cjyze, align 8, !dbg !3043
  %376 = fsub double %374, %375, !dbg !3044
  %377 = load [8 x double]*, [8 x double]** %4, align 8, !dbg !3045
  %378 = getelementptr inbounds [8 x double], [8 x double]* %377, i64 1, !dbg !3045
  %379 = getelementptr inbounds [8 x double], [8 x double]* %378, i64 0, i64 2, !dbg !3045
  store double %376, double* %379, align 8, !dbg !3046
  %380 = load double, double* %cjyxi, align 8, !dbg !3047
  %381 = fsub double -0.000000e+00, %380, !dbg !3048
  %382 = load double, double* %cjyet, align 8, !dbg !3049
  %383 = fadd double %381, %382, !dbg !3050
  %384 = load double, double* %cjyze, align 8, !dbg !3051
  %385 = fsub double %383, %384, !dbg !3052
  %386 = load [8 x double]*, [8 x double]** %4, align 8, !dbg !3053
  %387 = getelementptr inbounds [8 x double], [8 x double]* %386, i64 1, !dbg !3053
  %388 = getelementptr inbounds [8 x double], [8 x double]* %387, i64 0, i64 3, !dbg !3053
  store double %385, double* %388, align 8, !dbg !3054
  %389 = load [8 x double]*, [8 x double]** %4, align 8, !dbg !3055
  %390 = getelementptr inbounds [8 x double], [8 x double]* %389, i64 1, !dbg !3055
  %391 = getelementptr inbounds [8 x double], [8 x double]* %390, i64 0, i64 2, !dbg !3055
  %392 = load double, double* %391, align 8, !dbg !3055
  %393 = fsub double -0.000000e+00, %392, !dbg !3056
  %394 = load [8 x double]*, [8 x double]** %4, align 8, !dbg !3057
  %395 = getelementptr inbounds [8 x double], [8 x double]* %394, i64 1, !dbg !3057
  %396 = getelementptr inbounds [8 x double], [8 x double]* %395, i64 0, i64 4, !dbg !3057
  store double %393, double* %396, align 8, !dbg !3058
  %397 = load [8 x double]*, [8 x double]** %4, align 8, !dbg !3059
  %398 = getelementptr inbounds [8 x double], [8 x double]* %397, i64 1, !dbg !3059
  %399 = getelementptr inbounds [8 x double], [8 x double]* %398, i64 0, i64 3, !dbg !3059
  %400 = load double, double* %399, align 8, !dbg !3059
  %401 = fsub double -0.000000e+00, %400, !dbg !3060
  %402 = load [8 x double]*, [8 x double]** %4, align 8, !dbg !3061
  %403 = getelementptr inbounds [8 x double], [8 x double]* %402, i64 1, !dbg !3061
  %404 = getelementptr inbounds [8 x double], [8 x double]* %403, i64 0, i64 5, !dbg !3061
  store double %401, double* %404, align 8, !dbg !3062
  %405 = load [8 x double]*, [8 x double]** %4, align 8, !dbg !3063
  %406 = getelementptr inbounds [8 x double], [8 x double]* %405, i64 1, !dbg !3063
  %407 = getelementptr inbounds [8 x double], [8 x double]* %406, i64 0, i64 0, !dbg !3063
  %408 = load double, double* %407, align 8, !dbg !3063
  %409 = fsub double -0.000000e+00, %408, !dbg !3064
  %410 = load [8 x double]*, [8 x double]** %4, align 8, !dbg !3065
  %411 = getelementptr inbounds [8 x double], [8 x double]* %410, i64 1, !dbg !3065
  %412 = getelementptr inbounds [8 x double], [8 x double]* %411, i64 0, i64 6, !dbg !3065
  store double %409, double* %412, align 8, !dbg !3066
  %413 = load [8 x double]*, [8 x double]** %4, align 8, !dbg !3067
  %414 = getelementptr inbounds [8 x double], [8 x double]* %413, i64 1, !dbg !3067
  %415 = getelementptr inbounds [8 x double], [8 x double]* %414, i64 0, i64 1, !dbg !3067
  %416 = load double, double* %415, align 8, !dbg !3067
  %417 = fsub double -0.000000e+00, %416, !dbg !3068
  %418 = load [8 x double]*, [8 x double]** %4, align 8, !dbg !3069
  %419 = getelementptr inbounds [8 x double], [8 x double]* %418, i64 1, !dbg !3069
  %420 = getelementptr inbounds [8 x double], [8 x double]* %419, i64 0, i64 7, !dbg !3069
  store double %417, double* %420, align 8, !dbg !3070
  %421 = load double, double* %cjzxi, align 8, !dbg !3071
  %422 = fsub double -0.000000e+00, %421, !dbg !3072
  %423 = load double, double* %cjzet, align 8, !dbg !3073
  %424 = fsub double %422, %423, !dbg !3074
  %425 = load double, double* %cjzze, align 8, !dbg !3075
  %426 = fsub double %424, %425, !dbg !3076
  %427 = load [8 x double]*, [8 x double]** %4, align 8, !dbg !3077
  %428 = getelementptr inbounds [8 x double], [8 x double]* %427, i64 2, !dbg !3077
  %429 = getelementptr inbounds [8 x double], [8 x double]* %428, i64 0, i64 0, !dbg !3077
  store double %426, double* %429, align 8, !dbg !3078
  %430 = load double, double* %cjzxi, align 8, !dbg !3079
  %431 = load double, double* %cjzet, align 8, !dbg !3080
  %432 = fsub double %430, %431, !dbg !3081
  %433 = load double, double* %cjzze, align 8, !dbg !3082
  %434 = fsub double %432, %433, !dbg !3083
  %435 = load [8 x double]*, [8 x double]** %4, align 8, !dbg !3084
  %436 = getelementptr inbounds [8 x double], [8 x double]* %435, i64 2, !dbg !3084
  %437 = getelementptr inbounds [8 x double], [8 x double]* %436, i64 0, i64 1, !dbg !3084
  store double %434, double* %437, align 8, !dbg !3085
  %438 = load double, double* %cjzxi, align 8, !dbg !3086
  %439 = load double, double* %cjzet, align 8, !dbg !3087
  %440 = fadd double %438, %439, !dbg !3088
  %441 = load double, double* %cjzze, align 8, !dbg !3089
  %442 = fsub double %440, %441, !dbg !3090
  %443 = load [8 x double]*, [8 x double]** %4, align 8, !dbg !3091
  %444 = getelementptr inbounds [8 x double], [8 x double]* %443, i64 2, !dbg !3091
  %445 = getelementptr inbounds [8 x double], [8 x double]* %444, i64 0, i64 2, !dbg !3091
  store double %442, double* %445, align 8, !dbg !3092
  %446 = load double, double* %cjzxi, align 8, !dbg !3093
  %447 = fsub double -0.000000e+00, %446, !dbg !3094
  %448 = load double, double* %cjzet, align 8, !dbg !3095
  %449 = fadd double %447, %448, !dbg !3096
  %450 = load double, double* %cjzze, align 8, !dbg !3097
  %451 = fsub double %449, %450, !dbg !3098
  %452 = load [8 x double]*, [8 x double]** %4, align 8, !dbg !3099
  %453 = getelementptr inbounds [8 x double], [8 x double]* %452, i64 2, !dbg !3099
  %454 = getelementptr inbounds [8 x double], [8 x double]* %453, i64 0, i64 3, !dbg !3099
  store double %451, double* %454, align 8, !dbg !3100
  %455 = load [8 x double]*, [8 x double]** %4, align 8, !dbg !3101
  %456 = getelementptr inbounds [8 x double], [8 x double]* %455, i64 2, !dbg !3101
  %457 = getelementptr inbounds [8 x double], [8 x double]* %456, i64 0, i64 2, !dbg !3101
  %458 = load double, double* %457, align 8, !dbg !3101
  %459 = fsub double -0.000000e+00, %458, !dbg !3102
  %460 = load [8 x double]*, [8 x double]** %4, align 8, !dbg !3103
  %461 = getelementptr inbounds [8 x double], [8 x double]* %460, i64 2, !dbg !3103
  %462 = getelementptr inbounds [8 x double], [8 x double]* %461, i64 0, i64 4, !dbg !3103
  store double %459, double* %462, align 8, !dbg !3104
  %463 = load [8 x double]*, [8 x double]** %4, align 8, !dbg !3105
  %464 = getelementptr inbounds [8 x double], [8 x double]* %463, i64 2, !dbg !3105
  %465 = getelementptr inbounds [8 x double], [8 x double]* %464, i64 0, i64 3, !dbg !3105
  %466 = load double, double* %465, align 8, !dbg !3105
  %467 = fsub double -0.000000e+00, %466, !dbg !3106
  %468 = load [8 x double]*, [8 x double]** %4, align 8, !dbg !3107
  %469 = getelementptr inbounds [8 x double], [8 x double]* %468, i64 2, !dbg !3107
  %470 = getelementptr inbounds [8 x double], [8 x double]* %469, i64 0, i64 5, !dbg !3107
  store double %467, double* %470, align 8, !dbg !3108
  %471 = load [8 x double]*, [8 x double]** %4, align 8, !dbg !3109
  %472 = getelementptr inbounds [8 x double], [8 x double]* %471, i64 2, !dbg !3109
  %473 = getelementptr inbounds [8 x double], [8 x double]* %472, i64 0, i64 0, !dbg !3109
  %474 = load double, double* %473, align 8, !dbg !3109
  %475 = fsub double -0.000000e+00, %474, !dbg !3110
  %476 = load [8 x double]*, [8 x double]** %4, align 8, !dbg !3111
  %477 = getelementptr inbounds [8 x double], [8 x double]* %476, i64 2, !dbg !3111
  %478 = getelementptr inbounds [8 x double], [8 x double]* %477, i64 0, i64 6, !dbg !3111
  store double %475, double* %478, align 8, !dbg !3112
  %479 = load [8 x double]*, [8 x double]** %4, align 8, !dbg !3113
  %480 = getelementptr inbounds [8 x double], [8 x double]* %479, i64 2, !dbg !3113
  %481 = getelementptr inbounds [8 x double], [8 x double]* %480, i64 0, i64 1, !dbg !3113
  %482 = load double, double* %481, align 8, !dbg !3113
  %483 = fsub double -0.000000e+00, %482, !dbg !3114
  %484 = load [8 x double]*, [8 x double]** %4, align 8, !dbg !3115
  %485 = getelementptr inbounds [8 x double], [8 x double]* %484, i64 2, !dbg !3115
  %486 = getelementptr inbounds [8 x double], [8 x double]* %485, i64 0, i64 7, !dbg !3115
  store double %483, double* %486, align 8, !dbg !3116
  %487 = load double, double* %fjxet, align 8, !dbg !3117
  %488 = load double, double* %cjxet, align 8, !dbg !3118
  %489 = fmul double %487, %488, !dbg !3119
  %490 = load double, double* %fjyet, align 8, !dbg !3120
  %491 = load double, double* %cjyet, align 8, !dbg !3121
  %492 = fmul double %490, %491, !dbg !3122
  %493 = fadd double %489, %492, !dbg !3123
  %494 = load double, double* %fjzet, align 8, !dbg !3124
  %495 = load double, double* %cjzet, align 8, !dbg !3125
  %496 = fmul double %494, %495, !dbg !3126
  %497 = fadd double %493, %496, !dbg !3127
  %498 = fmul double 8.000000e+00, %497, !dbg !3128
  %499 = load double*, double** %5, align 8, !dbg !3129
  store double %498, double* %499, align 8, !dbg !3130
  ret void, !dbg !3131
}

; Function Attrs: inlinehint nounwind uwtable
define internal void @_ZL24CalcElemVelocityGradientPKdS0_S0_PA8_S_dPd(double* %xvel, double* %yvel, double* %zvel, [8 x double]* %b, double %detJ, double* %d) #4 !dbg !1208 {
  %1 = alloca double*, align 8
  %2 = alloca double*, align 8
  %3 = alloca double*, align 8
  %4 = alloca [8 x double]*, align 8
  %5 = alloca double, align 8
  %6 = alloca double*, align 8
  %inv_detJ = alloca double, align 8
  %dyddx = alloca double, align 8
  %dxddy = alloca double, align 8
  %dzddx = alloca double, align 8
  %dxddz = alloca double, align 8
  %dzddy = alloca double, align 8
  %dyddz = alloca double, align 8
  %pfx = alloca double*, align 8
  %pfy = alloca double*, align 8
  %pfz = alloca double*, align 8
  store double* %xvel, double** %1, align 8
  call void @llvm.dbg.declare(metadata double** %1, metadata !3132, metadata !1862), !dbg !3133
  store double* %yvel, double** %2, align 8
  call void @llvm.dbg.declare(metadata double** %2, metadata !3134, metadata !1862), !dbg !3135
  store double* %zvel, double** %3, align 8
  call void @llvm.dbg.declare(metadata double** %3, metadata !3136, metadata !1862), !dbg !3137
  store [8 x double]* %b, [8 x double]** %4, align 8
  call void @llvm.dbg.declare(metadata [8 x double]** %4, metadata !3138, metadata !1862), !dbg !3139
  store double %detJ, double* %5, align 8
  call void @llvm.dbg.declare(metadata double* %5, metadata !3140, metadata !1862), !dbg !3141
  store double* %d, double** %6, align 8
  call void @llvm.dbg.declare(metadata double** %6, metadata !3142, metadata !1862), !dbg !3143
  call void @llvm.dbg.declare(metadata double* %inv_detJ, metadata !3144, metadata !1862), !dbg !3145
  %7 = load double, double* %5, align 8, !dbg !3146
  %8 = fdiv double 1.000000e+00, %7, !dbg !3147
  store double %8, double* %inv_detJ, align 8, !dbg !3145
  call void @llvm.dbg.declare(metadata double* %dyddx, metadata !3148, metadata !1862), !dbg !3149
  call void @llvm.dbg.declare(metadata double* %dxddy, metadata !3150, metadata !1862), !dbg !3151
  call void @llvm.dbg.declare(metadata double* %dzddx, metadata !3152, metadata !1862), !dbg !3153
  call void @llvm.dbg.declare(metadata double* %dxddz, metadata !3154, metadata !1862), !dbg !3155
  call void @llvm.dbg.declare(metadata double* %dzddy, metadata !3156, metadata !1862), !dbg !3157
  call void @llvm.dbg.declare(metadata double* %dyddz, metadata !3158, metadata !1862), !dbg !3159
  call void @llvm.dbg.declare(metadata double** %pfx, metadata !3160, metadata !1862), !dbg !3161
  %9 = load [8 x double]*, [8 x double]** %4, align 8, !dbg !3162
  %10 = getelementptr inbounds [8 x double], [8 x double]* %9, i64 0, !dbg !3162
  %11 = getelementptr inbounds [8 x double], [8 x double]* %10, i32 0, i32 0, !dbg !3162
  store double* %11, double** %pfx, align 8, !dbg !3161
  call void @llvm.dbg.declare(metadata double** %pfy, metadata !3163, metadata !1862), !dbg !3164
  %12 = load [8 x double]*, [8 x double]** %4, align 8, !dbg !3165
  %13 = getelementptr inbounds [8 x double], [8 x double]* %12, i64 1, !dbg !3165
  %14 = getelementptr inbounds [8 x double], [8 x double]* %13, i32 0, i32 0, !dbg !3165
  store double* %14, double** %pfy, align 8, !dbg !3164
  call void @llvm.dbg.declare(metadata double** %pfz, metadata !3166, metadata !1862), !dbg !3167
  %15 = load [8 x double]*, [8 x double]** %4, align 8, !dbg !3168
  %16 = getelementptr inbounds [8 x double], [8 x double]* %15, i64 2, !dbg !3168
  %17 = getelementptr inbounds [8 x double], [8 x double]* %16, i32 0, i32 0, !dbg !3168
  store double* %17, double** %pfz, align 8, !dbg !3167
  %18 = load double, double* %inv_detJ, align 8, !dbg !3169
  %19 = load double*, double** %pfx, align 8, !dbg !3170
  %20 = getelementptr inbounds double, double* %19, i64 0, !dbg !3170
  %21 = load double, double* %20, align 8, !dbg !3170
  %22 = load double*, double** %1, align 8, !dbg !3171
  %23 = getelementptr inbounds double, double* %22, i64 0, !dbg !3171
  %24 = load double, double* %23, align 8, !dbg !3171
  %25 = load double*, double** %1, align 8, !dbg !3172
  %26 = getelementptr inbounds double, double* %25, i64 6, !dbg !3172
  %27 = load double, double* %26, align 8, !dbg !3172
  %28 = fsub double %24, %27, !dbg !3173
  %29 = fmul double %21, %28, !dbg !3174
  %30 = load double*, double** %pfx, align 8, !dbg !3175
  %31 = getelementptr inbounds double, double* %30, i64 1, !dbg !3175
  %32 = load double, double* %31, align 8, !dbg !3175
  %33 = load double*, double** %1, align 8, !dbg !3176
  %34 = getelementptr inbounds double, double* %33, i64 1, !dbg !3176
  %35 = load double, double* %34, align 8, !dbg !3176
  %36 = load double*, double** %1, align 8, !dbg !3177
  %37 = getelementptr inbounds double, double* %36, i64 7, !dbg !3177
  %38 = load double, double* %37, align 8, !dbg !3177
  %39 = fsub double %35, %38, !dbg !3178
  %40 = fmul double %32, %39, !dbg !3179
  %41 = fadd double %29, %40, !dbg !3180
  %42 = load double*, double** %pfx, align 8, !dbg !3181
  %43 = getelementptr inbounds double, double* %42, i64 2, !dbg !3181
  %44 = load double, double* %43, align 8, !dbg !3181
  %45 = load double*, double** %1, align 8, !dbg !3182
  %46 = getelementptr inbounds double, double* %45, i64 2, !dbg !3182
  %47 = load double, double* %46, align 8, !dbg !3182
  %48 = load double*, double** %1, align 8, !dbg !3183
  %49 = getelementptr inbounds double, double* %48, i64 4, !dbg !3183
  %50 = load double, double* %49, align 8, !dbg !3183
  %51 = fsub double %47, %50, !dbg !3184
  %52 = fmul double %44, %51, !dbg !3185
  %53 = fadd double %41, %52, !dbg !3186
  %54 = load double*, double** %pfx, align 8, !dbg !3187
  %55 = getelementptr inbounds double, double* %54, i64 3, !dbg !3187
  %56 = load double, double* %55, align 8, !dbg !3187
  %57 = load double*, double** %1, align 8, !dbg !3188
  %58 = getelementptr inbounds double, double* %57, i64 3, !dbg !3188
  %59 = load double, double* %58, align 8, !dbg !3188
  %60 = load double*, double** %1, align 8, !dbg !3189
  %61 = getelementptr inbounds double, double* %60, i64 5, !dbg !3189
  %62 = load double, double* %61, align 8, !dbg !3189
  %63 = fsub double %59, %62, !dbg !3190
  %64 = fmul double %56, %63, !dbg !3191
  %65 = fadd double %53, %64, !dbg !3192
  %66 = fmul double %18, %65, !dbg !3193
  %67 = load double*, double** %6, align 8, !dbg !3194
  %68 = getelementptr inbounds double, double* %67, i64 0, !dbg !3194
  store double %66, double* %68, align 8, !dbg !3195
  %69 = load double, double* %inv_detJ, align 8, !dbg !3196
  %70 = load double*, double** %pfy, align 8, !dbg !3197
  %71 = getelementptr inbounds double, double* %70, i64 0, !dbg !3197
  %72 = load double, double* %71, align 8, !dbg !3197
  %73 = load double*, double** %2, align 8, !dbg !3198
  %74 = getelementptr inbounds double, double* %73, i64 0, !dbg !3198
  %75 = load double, double* %74, align 8, !dbg !3198
  %76 = load double*, double** %2, align 8, !dbg !3199
  %77 = getelementptr inbounds double, double* %76, i64 6, !dbg !3199
  %78 = load double, double* %77, align 8, !dbg !3199
  %79 = fsub double %75, %78, !dbg !3200
  %80 = fmul double %72, %79, !dbg !3201
  %81 = load double*, double** %pfy, align 8, !dbg !3202
  %82 = getelementptr inbounds double, double* %81, i64 1, !dbg !3202
  %83 = load double, double* %82, align 8, !dbg !3202
  %84 = load double*, double** %2, align 8, !dbg !3203
  %85 = getelementptr inbounds double, double* %84, i64 1, !dbg !3203
  %86 = load double, double* %85, align 8, !dbg !3203
  %87 = load double*, double** %2, align 8, !dbg !3204
  %88 = getelementptr inbounds double, double* %87, i64 7, !dbg !3204
  %89 = load double, double* %88, align 8, !dbg !3204
  %90 = fsub double %86, %89, !dbg !3205
  %91 = fmul double %83, %90, !dbg !3206
  %92 = fadd double %80, %91, !dbg !3207
  %93 = load double*, double** %pfy, align 8, !dbg !3208
  %94 = getelementptr inbounds double, double* %93, i64 2, !dbg !3208
  %95 = load double, double* %94, align 8, !dbg !3208
  %96 = load double*, double** %2, align 8, !dbg !3209
  %97 = getelementptr inbounds double, double* %96, i64 2, !dbg !3209
  %98 = load double, double* %97, align 8, !dbg !3209
  %99 = load double*, double** %2, align 8, !dbg !3210
  %100 = getelementptr inbounds double, double* %99, i64 4, !dbg !3210
  %101 = load double, double* %100, align 8, !dbg !3210
  %102 = fsub double %98, %101, !dbg !3211
  %103 = fmul double %95, %102, !dbg !3212
  %104 = fadd double %92, %103, !dbg !3213
  %105 = load double*, double** %pfy, align 8, !dbg !3214
  %106 = getelementptr inbounds double, double* %105, i64 3, !dbg !3214
  %107 = load double, double* %106, align 8, !dbg !3214
  %108 = load double*, double** %2, align 8, !dbg !3215
  %109 = getelementptr inbounds double, double* %108, i64 3, !dbg !3215
  %110 = load double, double* %109, align 8, !dbg !3215
  %111 = load double*, double** %2, align 8, !dbg !3216
  %112 = getelementptr inbounds double, double* %111, i64 5, !dbg !3216
  %113 = load double, double* %112, align 8, !dbg !3216
  %114 = fsub double %110, %113, !dbg !3217
  %115 = fmul double %107, %114, !dbg !3218
  %116 = fadd double %104, %115, !dbg !3219
  %117 = fmul double %69, %116, !dbg !3220
  %118 = load double*, double** %6, align 8, !dbg !3221
  %119 = getelementptr inbounds double, double* %118, i64 1, !dbg !3221
  store double %117, double* %119, align 8, !dbg !3222
  %120 = load double, double* %inv_detJ, align 8, !dbg !3223
  %121 = load double*, double** %pfz, align 8, !dbg !3224
  %122 = getelementptr inbounds double, double* %121, i64 0, !dbg !3224
  %123 = load double, double* %122, align 8, !dbg !3224
  %124 = load double*, double** %3, align 8, !dbg !3225
  %125 = getelementptr inbounds double, double* %124, i64 0, !dbg !3225
  %126 = load double, double* %125, align 8, !dbg !3225
  %127 = load double*, double** %3, align 8, !dbg !3226
  %128 = getelementptr inbounds double, double* %127, i64 6, !dbg !3226
  %129 = load double, double* %128, align 8, !dbg !3226
  %130 = fsub double %126, %129, !dbg !3227
  %131 = fmul double %123, %130, !dbg !3228
  %132 = load double*, double** %pfz, align 8, !dbg !3229
  %133 = getelementptr inbounds double, double* %132, i64 1, !dbg !3229
  %134 = load double, double* %133, align 8, !dbg !3229
  %135 = load double*, double** %3, align 8, !dbg !3230
  %136 = getelementptr inbounds double, double* %135, i64 1, !dbg !3230
  %137 = load double, double* %136, align 8, !dbg !3230
  %138 = load double*, double** %3, align 8, !dbg !3231
  %139 = getelementptr inbounds double, double* %138, i64 7, !dbg !3231
  %140 = load double, double* %139, align 8, !dbg !3231
  %141 = fsub double %137, %140, !dbg !3232
  %142 = fmul double %134, %141, !dbg !3233
  %143 = fadd double %131, %142, !dbg !3234
  %144 = load double*, double** %pfz, align 8, !dbg !3235
  %145 = getelementptr inbounds double, double* %144, i64 2, !dbg !3235
  %146 = load double, double* %145, align 8, !dbg !3235
  %147 = load double*, double** %3, align 8, !dbg !3236
  %148 = getelementptr inbounds double, double* %147, i64 2, !dbg !3236
  %149 = load double, double* %148, align 8, !dbg !3236
  %150 = load double*, double** %3, align 8, !dbg !3237
  %151 = getelementptr inbounds double, double* %150, i64 4, !dbg !3237
  %152 = load double, double* %151, align 8, !dbg !3237
  %153 = fsub double %149, %152, !dbg !3238
  %154 = fmul double %146, %153, !dbg !3239
  %155 = fadd double %143, %154, !dbg !3240
  %156 = load double*, double** %pfz, align 8, !dbg !3241
  %157 = getelementptr inbounds double, double* %156, i64 3, !dbg !3241
  %158 = load double, double* %157, align 8, !dbg !3241
  %159 = load double*, double** %3, align 8, !dbg !3242
  %160 = getelementptr inbounds double, double* %159, i64 3, !dbg !3242
  %161 = load double, double* %160, align 8, !dbg !3242
  %162 = load double*, double** %3, align 8, !dbg !3243
  %163 = getelementptr inbounds double, double* %162, i64 5, !dbg !3243
  %164 = load double, double* %163, align 8, !dbg !3243
  %165 = fsub double %161, %164, !dbg !3244
  %166 = fmul double %158, %165, !dbg !3245
  %167 = fadd double %155, %166, !dbg !3246
  %168 = fmul double %120, %167, !dbg !3247
  %169 = load double*, double** %6, align 8, !dbg !3248
  %170 = getelementptr inbounds double, double* %169, i64 2, !dbg !3248
  store double %168, double* %170, align 8, !dbg !3249
  %171 = load double, double* %inv_detJ, align 8, !dbg !3250
  %172 = load double*, double** %pfx, align 8, !dbg !3251
  %173 = getelementptr inbounds double, double* %172, i64 0, !dbg !3251
  %174 = load double, double* %173, align 8, !dbg !3251
  %175 = load double*, double** %2, align 8, !dbg !3252
  %176 = getelementptr inbounds double, double* %175, i64 0, !dbg !3252
  %177 = load double, double* %176, align 8, !dbg !3252
  %178 = load double*, double** %2, align 8, !dbg !3253
  %179 = getelementptr inbounds double, double* %178, i64 6, !dbg !3253
  %180 = load double, double* %179, align 8, !dbg !3253
  %181 = fsub double %177, %180, !dbg !3254
  %182 = fmul double %174, %181, !dbg !3255
  %183 = load double*, double** %pfx, align 8, !dbg !3256
  %184 = getelementptr inbounds double, double* %183, i64 1, !dbg !3256
  %185 = load double, double* %184, align 8, !dbg !3256
  %186 = load double*, double** %2, align 8, !dbg !3257
  %187 = getelementptr inbounds double, double* %186, i64 1, !dbg !3257
  %188 = load double, double* %187, align 8, !dbg !3257
  %189 = load double*, double** %2, align 8, !dbg !3258
  %190 = getelementptr inbounds double, double* %189, i64 7, !dbg !3258
  %191 = load double, double* %190, align 8, !dbg !3258
  %192 = fsub double %188, %191, !dbg !3259
  %193 = fmul double %185, %192, !dbg !3260
  %194 = fadd double %182, %193, !dbg !3261
  %195 = load double*, double** %pfx, align 8, !dbg !3262
  %196 = getelementptr inbounds double, double* %195, i64 2, !dbg !3262
  %197 = load double, double* %196, align 8, !dbg !3262
  %198 = load double*, double** %2, align 8, !dbg !3263
  %199 = getelementptr inbounds double, double* %198, i64 2, !dbg !3263
  %200 = load double, double* %199, align 8, !dbg !3263
  %201 = load double*, double** %2, align 8, !dbg !3264
  %202 = getelementptr inbounds double, double* %201, i64 4, !dbg !3264
  %203 = load double, double* %202, align 8, !dbg !3264
  %204 = fsub double %200, %203, !dbg !3265
  %205 = fmul double %197, %204, !dbg !3266
  %206 = fadd double %194, %205, !dbg !3267
  %207 = load double*, double** %pfx, align 8, !dbg !3268
  %208 = getelementptr inbounds double, double* %207, i64 3, !dbg !3268
  %209 = load double, double* %208, align 8, !dbg !3268
  %210 = load double*, double** %2, align 8, !dbg !3269
  %211 = getelementptr inbounds double, double* %210, i64 3, !dbg !3269
  %212 = load double, double* %211, align 8, !dbg !3269
  %213 = load double*, double** %2, align 8, !dbg !3270
  %214 = getelementptr inbounds double, double* %213, i64 5, !dbg !3270
  %215 = load double, double* %214, align 8, !dbg !3270
  %216 = fsub double %212, %215, !dbg !3271
  %217 = fmul double %209, %216, !dbg !3272
  %218 = fadd double %206, %217, !dbg !3273
  %219 = fmul double %171, %218, !dbg !3274
  store double %219, double* %dyddx, align 8, !dbg !3275
  %220 = load double, double* %inv_detJ, align 8, !dbg !3276
  %221 = load double*, double** %pfy, align 8, !dbg !3277
  %222 = getelementptr inbounds double, double* %221, i64 0, !dbg !3277
  %223 = load double, double* %222, align 8, !dbg !3277
  %224 = load double*, double** %1, align 8, !dbg !3278
  %225 = getelementptr inbounds double, double* %224, i64 0, !dbg !3278
  %226 = load double, double* %225, align 8, !dbg !3278
  %227 = load double*, double** %1, align 8, !dbg !3279
  %228 = getelementptr inbounds double, double* %227, i64 6, !dbg !3279
  %229 = load double, double* %228, align 8, !dbg !3279
  %230 = fsub double %226, %229, !dbg !3280
  %231 = fmul double %223, %230, !dbg !3281
  %232 = load double*, double** %pfy, align 8, !dbg !3282
  %233 = getelementptr inbounds double, double* %232, i64 1, !dbg !3282
  %234 = load double, double* %233, align 8, !dbg !3282
  %235 = load double*, double** %1, align 8, !dbg !3283
  %236 = getelementptr inbounds double, double* %235, i64 1, !dbg !3283
  %237 = load double, double* %236, align 8, !dbg !3283
  %238 = load double*, double** %1, align 8, !dbg !3284
  %239 = getelementptr inbounds double, double* %238, i64 7, !dbg !3284
  %240 = load double, double* %239, align 8, !dbg !3284
  %241 = fsub double %237, %240, !dbg !3285
  %242 = fmul double %234, %241, !dbg !3286
  %243 = fadd double %231, %242, !dbg !3287
  %244 = load double*, double** %pfy, align 8, !dbg !3288
  %245 = getelementptr inbounds double, double* %244, i64 2, !dbg !3288
  %246 = load double, double* %245, align 8, !dbg !3288
  %247 = load double*, double** %1, align 8, !dbg !3289
  %248 = getelementptr inbounds double, double* %247, i64 2, !dbg !3289
  %249 = load double, double* %248, align 8, !dbg !3289
  %250 = load double*, double** %1, align 8, !dbg !3290
  %251 = getelementptr inbounds double, double* %250, i64 4, !dbg !3290
  %252 = load double, double* %251, align 8, !dbg !3290
  %253 = fsub double %249, %252, !dbg !3291
  %254 = fmul double %246, %253, !dbg !3292
  %255 = fadd double %243, %254, !dbg !3293
  %256 = load double*, double** %pfy, align 8, !dbg !3294
  %257 = getelementptr inbounds double, double* %256, i64 3, !dbg !3294
  %258 = load double, double* %257, align 8, !dbg !3294
  %259 = load double*, double** %1, align 8, !dbg !3295
  %260 = getelementptr inbounds double, double* %259, i64 3, !dbg !3295
  %261 = load double, double* %260, align 8, !dbg !3295
  %262 = load double*, double** %1, align 8, !dbg !3296
  %263 = getelementptr inbounds double, double* %262, i64 5, !dbg !3296
  %264 = load double, double* %263, align 8, !dbg !3296
  %265 = fsub double %261, %264, !dbg !3297
  %266 = fmul double %258, %265, !dbg !3298
  %267 = fadd double %255, %266, !dbg !3299
  %268 = fmul double %220, %267, !dbg !3300
  store double %268, double* %dxddy, align 8, !dbg !3301
  %269 = load double, double* %inv_detJ, align 8, !dbg !3302
  %270 = load double*, double** %pfx, align 8, !dbg !3303
  %271 = getelementptr inbounds double, double* %270, i64 0, !dbg !3303
  %272 = load double, double* %271, align 8, !dbg !3303
  %273 = load double*, double** %3, align 8, !dbg !3304
  %274 = getelementptr inbounds double, double* %273, i64 0, !dbg !3304
  %275 = load double, double* %274, align 8, !dbg !3304
  %276 = load double*, double** %3, align 8, !dbg !3305
  %277 = getelementptr inbounds double, double* %276, i64 6, !dbg !3305
  %278 = load double, double* %277, align 8, !dbg !3305
  %279 = fsub double %275, %278, !dbg !3306
  %280 = fmul double %272, %279, !dbg !3307
  %281 = load double*, double** %pfx, align 8, !dbg !3308
  %282 = getelementptr inbounds double, double* %281, i64 1, !dbg !3308
  %283 = load double, double* %282, align 8, !dbg !3308
  %284 = load double*, double** %3, align 8, !dbg !3309
  %285 = getelementptr inbounds double, double* %284, i64 1, !dbg !3309
  %286 = load double, double* %285, align 8, !dbg !3309
  %287 = load double*, double** %3, align 8, !dbg !3310
  %288 = getelementptr inbounds double, double* %287, i64 7, !dbg !3310
  %289 = load double, double* %288, align 8, !dbg !3310
  %290 = fsub double %286, %289, !dbg !3311
  %291 = fmul double %283, %290, !dbg !3312
  %292 = fadd double %280, %291, !dbg !3313
  %293 = load double*, double** %pfx, align 8, !dbg !3314
  %294 = getelementptr inbounds double, double* %293, i64 2, !dbg !3314
  %295 = load double, double* %294, align 8, !dbg !3314
  %296 = load double*, double** %3, align 8, !dbg !3315
  %297 = getelementptr inbounds double, double* %296, i64 2, !dbg !3315
  %298 = load double, double* %297, align 8, !dbg !3315
  %299 = load double*, double** %3, align 8, !dbg !3316
  %300 = getelementptr inbounds double, double* %299, i64 4, !dbg !3316
  %301 = load double, double* %300, align 8, !dbg !3316
  %302 = fsub double %298, %301, !dbg !3317
  %303 = fmul double %295, %302, !dbg !3318
  %304 = fadd double %292, %303, !dbg !3319
  %305 = load double*, double** %pfx, align 8, !dbg !3320
  %306 = getelementptr inbounds double, double* %305, i64 3, !dbg !3320
  %307 = load double, double* %306, align 8, !dbg !3320
  %308 = load double*, double** %3, align 8, !dbg !3321
  %309 = getelementptr inbounds double, double* %308, i64 3, !dbg !3321
  %310 = load double, double* %309, align 8, !dbg !3321
  %311 = load double*, double** %3, align 8, !dbg !3322
  %312 = getelementptr inbounds double, double* %311, i64 5, !dbg !3322
  %313 = load double, double* %312, align 8, !dbg !3322
  %314 = fsub double %310, %313, !dbg !3323
  %315 = fmul double %307, %314, !dbg !3324
  %316 = fadd double %304, %315, !dbg !3325
  %317 = fmul double %269, %316, !dbg !3326
  store double %317, double* %dzddx, align 8, !dbg !3327
  %318 = load double, double* %inv_detJ, align 8, !dbg !3328
  %319 = load double*, double** %pfz, align 8, !dbg !3329
  %320 = getelementptr inbounds double, double* %319, i64 0, !dbg !3329
  %321 = load double, double* %320, align 8, !dbg !3329
  %322 = load double*, double** %1, align 8, !dbg !3330
  %323 = getelementptr inbounds double, double* %322, i64 0, !dbg !3330
  %324 = load double, double* %323, align 8, !dbg !3330
  %325 = load double*, double** %1, align 8, !dbg !3331
  %326 = getelementptr inbounds double, double* %325, i64 6, !dbg !3331
  %327 = load double, double* %326, align 8, !dbg !3331
  %328 = fsub double %324, %327, !dbg !3332
  %329 = fmul double %321, %328, !dbg !3333
  %330 = load double*, double** %pfz, align 8, !dbg !3334
  %331 = getelementptr inbounds double, double* %330, i64 1, !dbg !3334
  %332 = load double, double* %331, align 8, !dbg !3334
  %333 = load double*, double** %1, align 8, !dbg !3335
  %334 = getelementptr inbounds double, double* %333, i64 1, !dbg !3335
  %335 = load double, double* %334, align 8, !dbg !3335
  %336 = load double*, double** %1, align 8, !dbg !3336
  %337 = getelementptr inbounds double, double* %336, i64 7, !dbg !3336
  %338 = load double, double* %337, align 8, !dbg !3336
  %339 = fsub double %335, %338, !dbg !3337
  %340 = fmul double %332, %339, !dbg !3338
  %341 = fadd double %329, %340, !dbg !3339
  %342 = load double*, double** %pfz, align 8, !dbg !3340
  %343 = getelementptr inbounds double, double* %342, i64 2, !dbg !3340
  %344 = load double, double* %343, align 8, !dbg !3340
  %345 = load double*, double** %1, align 8, !dbg !3341
  %346 = getelementptr inbounds double, double* %345, i64 2, !dbg !3341
  %347 = load double, double* %346, align 8, !dbg !3341
  %348 = load double*, double** %1, align 8, !dbg !3342
  %349 = getelementptr inbounds double, double* %348, i64 4, !dbg !3342
  %350 = load double, double* %349, align 8, !dbg !3342
  %351 = fsub double %347, %350, !dbg !3343
  %352 = fmul double %344, %351, !dbg !3344
  %353 = fadd double %341, %352, !dbg !3345
  %354 = load double*, double** %pfz, align 8, !dbg !3346
  %355 = getelementptr inbounds double, double* %354, i64 3, !dbg !3346
  %356 = load double, double* %355, align 8, !dbg !3346
  %357 = load double*, double** %1, align 8, !dbg !3347
  %358 = getelementptr inbounds double, double* %357, i64 3, !dbg !3347
  %359 = load double, double* %358, align 8, !dbg !3347
  %360 = load double*, double** %1, align 8, !dbg !3348
  %361 = getelementptr inbounds double, double* %360, i64 5, !dbg !3348
  %362 = load double, double* %361, align 8, !dbg !3348
  %363 = fsub double %359, %362, !dbg !3349
  %364 = fmul double %356, %363, !dbg !3350
  %365 = fadd double %353, %364, !dbg !3351
  %366 = fmul double %318, %365, !dbg !3352
  store double %366, double* %dxddz, align 8, !dbg !3353
  %367 = load double, double* %inv_detJ, align 8, !dbg !3354
  %368 = load double*, double** %pfy, align 8, !dbg !3355
  %369 = getelementptr inbounds double, double* %368, i64 0, !dbg !3355
  %370 = load double, double* %369, align 8, !dbg !3355
  %371 = load double*, double** %3, align 8, !dbg !3356
  %372 = getelementptr inbounds double, double* %371, i64 0, !dbg !3356
  %373 = load double, double* %372, align 8, !dbg !3356
  %374 = load double*, double** %3, align 8, !dbg !3357
  %375 = getelementptr inbounds double, double* %374, i64 6, !dbg !3357
  %376 = load double, double* %375, align 8, !dbg !3357
  %377 = fsub double %373, %376, !dbg !3358
  %378 = fmul double %370, %377, !dbg !3359
  %379 = load double*, double** %pfy, align 8, !dbg !3360
  %380 = getelementptr inbounds double, double* %379, i64 1, !dbg !3360
  %381 = load double, double* %380, align 8, !dbg !3360
  %382 = load double*, double** %3, align 8, !dbg !3361
  %383 = getelementptr inbounds double, double* %382, i64 1, !dbg !3361
  %384 = load double, double* %383, align 8, !dbg !3361
  %385 = load double*, double** %3, align 8, !dbg !3362
  %386 = getelementptr inbounds double, double* %385, i64 7, !dbg !3362
  %387 = load double, double* %386, align 8, !dbg !3362
  %388 = fsub double %384, %387, !dbg !3363
  %389 = fmul double %381, %388, !dbg !3364
  %390 = fadd double %378, %389, !dbg !3365
  %391 = load double*, double** %pfy, align 8, !dbg !3366
  %392 = getelementptr inbounds double, double* %391, i64 2, !dbg !3366
  %393 = load double, double* %392, align 8, !dbg !3366
  %394 = load double*, double** %3, align 8, !dbg !3367
  %395 = getelementptr inbounds double, double* %394, i64 2, !dbg !3367
  %396 = load double, double* %395, align 8, !dbg !3367
  %397 = load double*, double** %3, align 8, !dbg !3368
  %398 = getelementptr inbounds double, double* %397, i64 4, !dbg !3368
  %399 = load double, double* %398, align 8, !dbg !3368
  %400 = fsub double %396, %399, !dbg !3369
  %401 = fmul double %393, %400, !dbg !3370
  %402 = fadd double %390, %401, !dbg !3371
  %403 = load double*, double** %pfy, align 8, !dbg !3372
  %404 = getelementptr inbounds double, double* %403, i64 3, !dbg !3372
  %405 = load double, double* %404, align 8, !dbg !3372
  %406 = load double*, double** %3, align 8, !dbg !3373
  %407 = getelementptr inbounds double, double* %406, i64 3, !dbg !3373
  %408 = load double, double* %407, align 8, !dbg !3373
  %409 = load double*, double** %3, align 8, !dbg !3374
  %410 = getelementptr inbounds double, double* %409, i64 5, !dbg !3374
  %411 = load double, double* %410, align 8, !dbg !3374
  %412 = fsub double %408, %411, !dbg !3375
  %413 = fmul double %405, %412, !dbg !3376
  %414 = fadd double %402, %413, !dbg !3377
  %415 = fmul double %367, %414, !dbg !3378
  store double %415, double* %dzddy, align 8, !dbg !3379
  %416 = load double, double* %inv_detJ, align 8, !dbg !3380
  %417 = load double*, double** %pfz, align 8, !dbg !3381
  %418 = getelementptr inbounds double, double* %417, i64 0, !dbg !3381
  %419 = load double, double* %418, align 8, !dbg !3381
  %420 = load double*, double** %2, align 8, !dbg !3382
  %421 = getelementptr inbounds double, double* %420, i64 0, !dbg !3382
  %422 = load double, double* %421, align 8, !dbg !3382
  %423 = load double*, double** %2, align 8, !dbg !3383
  %424 = getelementptr inbounds double, double* %423, i64 6, !dbg !3383
  %425 = load double, double* %424, align 8, !dbg !3383
  %426 = fsub double %422, %425, !dbg !3384
  %427 = fmul double %419, %426, !dbg !3385
  %428 = load double*, double** %pfz, align 8, !dbg !3386
  %429 = getelementptr inbounds double, double* %428, i64 1, !dbg !3386
  %430 = load double, double* %429, align 8, !dbg !3386
  %431 = load double*, double** %2, align 8, !dbg !3387
  %432 = getelementptr inbounds double, double* %431, i64 1, !dbg !3387
  %433 = load double, double* %432, align 8, !dbg !3387
  %434 = load double*, double** %2, align 8, !dbg !3388
  %435 = getelementptr inbounds double, double* %434, i64 7, !dbg !3388
  %436 = load double, double* %435, align 8, !dbg !3388
  %437 = fsub double %433, %436, !dbg !3389
  %438 = fmul double %430, %437, !dbg !3390
  %439 = fadd double %427, %438, !dbg !3391
  %440 = load double*, double** %pfz, align 8, !dbg !3392
  %441 = getelementptr inbounds double, double* %440, i64 2, !dbg !3392
  %442 = load double, double* %441, align 8, !dbg !3392
  %443 = load double*, double** %2, align 8, !dbg !3393
  %444 = getelementptr inbounds double, double* %443, i64 2, !dbg !3393
  %445 = load double, double* %444, align 8, !dbg !3393
  %446 = load double*, double** %2, align 8, !dbg !3394
  %447 = getelementptr inbounds double, double* %446, i64 4, !dbg !3394
  %448 = load double, double* %447, align 8, !dbg !3394
  %449 = fsub double %445, %448, !dbg !3395
  %450 = fmul double %442, %449, !dbg !3396
  %451 = fadd double %439, %450, !dbg !3397
  %452 = load double*, double** %pfz, align 8, !dbg !3398
  %453 = getelementptr inbounds double, double* %452, i64 3, !dbg !3398
  %454 = load double, double* %453, align 8, !dbg !3398
  %455 = load double*, double** %2, align 8, !dbg !3399
  %456 = getelementptr inbounds double, double* %455, i64 3, !dbg !3399
  %457 = load double, double* %456, align 8, !dbg !3399
  %458 = load double*, double** %2, align 8, !dbg !3400
  %459 = getelementptr inbounds double, double* %458, i64 5, !dbg !3400
  %460 = load double, double* %459, align 8, !dbg !3400
  %461 = fsub double %457, %460, !dbg !3401
  %462 = fmul double %454, %461, !dbg !3402
  %463 = fadd double %451, %462, !dbg !3403
  %464 = fmul double %416, %463, !dbg !3404
  store double %464, double* %dyddz, align 8, !dbg !3405
  %465 = load double, double* %dxddy, align 8, !dbg !3406
  %466 = load double, double* %dyddx, align 8, !dbg !3407
  %467 = fadd double %465, %466, !dbg !3408
  %468 = fmul double 5.000000e-01, %467, !dbg !3409
  %469 = load double*, double** %6, align 8, !dbg !3410
  %470 = getelementptr inbounds double, double* %469, i64 5, !dbg !3410
  store double %468, double* %470, align 8, !dbg !3411
  %471 = load double, double* %dxddz, align 8, !dbg !3412
  %472 = load double, double* %dzddx, align 8, !dbg !3413
  %473 = fadd double %471, %472, !dbg !3414
  %474 = fmul double 5.000000e-01, %473, !dbg !3415
  %475 = load double*, double** %6, align 8, !dbg !3416
  %476 = getelementptr inbounds double, double* %475, i64 4, !dbg !3416
  store double %474, double* %476, align 8, !dbg !3417
  %477 = load double, double* %dzddy, align 8, !dbg !3418
  %478 = load double, double* %dyddz, align 8, !dbg !3419
  %479 = fadd double %477, %478, !dbg !3420
  %480 = fmul double 5.000000e-01, %479, !dbg !3421
  %481 = load double*, double** %6, align 8, !dbg !3422
  %482 = getelementptr inbounds double, double* %481, i64 3, !dbg !3422
  store double %480, double* %482, align 8, !dbg !3423
  ret void, !dbg !3424
}

; Function Attrs: nounwind uwtable
define linkonce_odr dereferenceable(8) double* @_ZN6Domain3dxxEi(%class.Domain* %this, i32 %idx) #6 comdat align 2 !dbg !1214 {
  %1 = alloca %class.Domain*, align 8
  %2 = alloca i32, align 4
  store %class.Domain* %this, %class.Domain** %1, align 8
  call void @llvm.dbg.declare(metadata %class.Domain** %1, metadata !3425, metadata !1862), !dbg !3426
  store i32 %idx, i32* %2, align 4
  call void @llvm.dbg.declare(metadata i32* %2, metadata !3427, metadata !1862), !dbg !3428
  %3 = load %class.Domain*, %class.Domain** %1, align 8
  %4 = getelementptr inbounds %class.Domain, %class.Domain* %3, i32 0, i32 29, !dbg !3429
  %5 = load i32, i32* %2, align 4, !dbg !3430
  %6 = sext i32 %5 to i64, !dbg !3430
  %7 = call dereferenceable(8) double* @_ZNSt6vectorIdSaIdEEixEm(%"class.std::vector"* %4, i64 %6), !dbg !3429
  ret double* %7, !dbg !3431
}

; Function Attrs: nounwind uwtable
define linkonce_odr dereferenceable(8) double* @_ZN6Domain3dyyEi(%class.Domain* %this, i32 %idx) #6 comdat align 2 !dbg !1215 {
  %1 = alloca %class.Domain*, align 8
  %2 = alloca i32, align 4
  store %class.Domain* %this, %class.Domain** %1, align 8
  call void @llvm.dbg.declare(metadata %class.Domain** %1, metadata !3432, metadata !1862), !dbg !3433
  store i32 %idx, i32* %2, align 4
  call void @llvm.dbg.declare(metadata i32* %2, metadata !3434, metadata !1862), !dbg !3435
  %3 = load %class.Domain*, %class.Domain** %1, align 8
  %4 = getelementptr inbounds %class.Domain, %class.Domain* %3, i32 0, i32 30, !dbg !3436
  %5 = load i32, i32* %2, align 4, !dbg !3437
  %6 = sext i32 %5 to i64, !dbg !3437
  %7 = call dereferenceable(8) double* @_ZNSt6vectorIdSaIdEEixEm(%"class.std::vector"* %4, i64 %6), !dbg !3436
  ret double* %7, !dbg !3438
}

; Function Attrs: nounwind uwtable
define linkonce_odr dereferenceable(8) double* @_ZN6Domain3dzzEi(%class.Domain* %this, i32 %idx) #6 comdat align 2 !dbg !1216 {
  %1 = alloca %class.Domain*, align 8
  %2 = alloca i32, align 4
  store %class.Domain* %this, %class.Domain** %1, align 8
  call void @llvm.dbg.declare(metadata %class.Domain** %1, metadata !3439, metadata !1862), !dbg !3440
  store i32 %idx, i32* %2, align 4
  call void @llvm.dbg.declare(metadata i32* %2, metadata !3441, metadata !1862), !dbg !3442
  %3 = load %class.Domain*, %class.Domain** %1, align 8
  %4 = getelementptr inbounds %class.Domain, %class.Domain* %3, i32 0, i32 31, !dbg !3443
  %5 = load i32, i32* %2, align 4, !dbg !3444
  %6 = sext i32 %5 to i64, !dbg !3444
  %7 = call dereferenceable(8) double* @_ZNSt6vectorIdSaIdEEixEm(%"class.std::vector"* %4, i64 %6), !dbg !3443
  ret double* %7, !dbg !3445
}

; Function Attrs: norecurse uwtable
define i32 @main(i32 %argc, i8** %argv) #7 personality i8* bitcast (i32 (...)* @__gxx_personality_v0 to i8*) !dbg !1162 {
  %1 = alloca i32, align 4
  %2 = alloca i32, align 4
  %3 = alloca i8**, align 8
  %locDom = alloca %class.Domain*, align 8
  %numRanks = alloca i32, align 4
  %myRank = alloca i32, align 4
  %opts = alloca %struct.cmdLineOpts, align 4
  %col = alloca i32, align 4
  %row = alloca i32, align 4
  %plane = alloca i32, align 4
  %side = alloca i32, align 4
  %4 = alloca i8*
  %5 = alloca i32
  %start = alloca %struct.timeval, align 8
  %elapsed_time = alloca double, align 8
  %end = alloca %struct.timeval, align 8
  %elapsed_timeG = alloca double, align 8
  store i32 0, i32* %1, align 4
  store i32 %argc, i32* %2, align 4
  call void @llvm.dbg.declare(metadata i32* %2, metadata !3446, metadata !1862), !dbg !3447
  store i8** %argv, i8*** %3, align 8
  call void @llvm.dbg.declare(metadata i8*** %3, metadata !3448, metadata !1862), !dbg !3449
  call void @llvm.dbg.declare(metadata %class.Domain** %locDom, metadata !3450, metadata !1862), !dbg !3451
  call void @llvm.dbg.declare(metadata i32* %numRanks, metadata !3452, metadata !1862), !dbg !3453
  call void @llvm.dbg.declare(metadata i32* %myRank, metadata !3454, metadata !1862), !dbg !3455
  call void @llvm.dbg.declare(metadata %struct.cmdLineOpts* %opts, metadata !3456, metadata !1862), !dbg !3457
  store i32 1, i32* %numRanks, align 4, !dbg !3458
  store i32 0, i32* %myRank, align 4, !dbg !3459
  %6 = getelementptr inbounds %struct.cmdLineOpts, %struct.cmdLineOpts* %opts, i32 0, i32 0, !dbg !3460
  store i32 9999999, i32* %6, align 4, !dbg !3461
  %7 = getelementptr inbounds %struct.cmdLineOpts, %struct.cmdLineOpts* %opts, i32 0, i32 1, !dbg !3462
  store i32 30, i32* %7, align 4, !dbg !3463
  %8 = getelementptr inbounds %struct.cmdLineOpts, %struct.cmdLineOpts* %opts, i32 0, i32 2, !dbg !3464
  store i32 11, i32* %8, align 4, !dbg !3465
  %9 = load i32, i32* %numRanks, align 4, !dbg !3466
  %10 = add nsw i32 %9, 10, !dbg !3467
  %11 = sdiv i32 %10, 9, !dbg !3468
  %12 = getelementptr inbounds %struct.cmdLineOpts, %struct.cmdLineOpts* %opts, i32 0, i32 3, !dbg !3469
  store i32 %11, i32* %12, align 4, !dbg !3470
  %13 = getelementptr inbounds %struct.cmdLineOpts, %struct.cmdLineOpts* %opts, i32 0, i32 4, !dbg !3471
  store i32 0, i32* %13, align 4, !dbg !3472
  %14 = getelementptr inbounds %struct.cmdLineOpts, %struct.cmdLineOpts* %opts, i32 0, i32 5, !dbg !3473
  store i32 0, i32* %14, align 4, !dbg !3474
  %15 = getelementptr inbounds %struct.cmdLineOpts, %struct.cmdLineOpts* %opts, i32 0, i32 6, !dbg !3475
  store i32 0, i32* %15, align 4, !dbg !3476
  %16 = getelementptr inbounds %struct.cmdLineOpts, %struct.cmdLineOpts* %opts, i32 0, i32 8, !dbg !3477
  store i32 1, i32* %16, align 4, !dbg !3478
  %17 = getelementptr inbounds %struct.cmdLineOpts, %struct.cmdLineOpts* %opts, i32 0, i32 7, !dbg !3479
  store i32 1, i32* %17, align 4, !dbg !3480
  %18 = load i32, i32* %2, align 4, !dbg !3481
  %19 = load i8**, i8*** %3, align 8, !dbg !3482
  %20 = load i32, i32* %myRank, align 4, !dbg !3483
  call void @_Z23ParseCommandLineOptionsiPPciP11cmdLineOpts(i32 %18, i8** %19, i32 %20, %struct.cmdLineOpts* %opts), !dbg !3484
  %21 = load i32, i32* %myRank, align 4, !dbg !3485
  %22 = icmp eq i32 %21, 0, !dbg !3487
  br i1 %22, label %23, label %52, !dbg !3488

; <label>:23                                      ; preds = %0
  %24 = getelementptr inbounds %struct.cmdLineOpts, %struct.cmdLineOpts* %opts, i32 0, i32 5, !dbg !3489
  %25 = load i32, i32* %24, align 4, !dbg !3489
  %26 = icmp eq i32 %25, 0, !dbg !3491
  br i1 %26, label %27, label %52, !dbg !3492

; <label>:27                                      ; preds = %23
  %28 = getelementptr inbounds %struct.cmdLineOpts, %struct.cmdLineOpts* %opts, i32 0, i32 1, !dbg !3493
  %29 = load i32, i32* %28, align 4, !dbg !3493
  %30 = call i32 (i8*, ...) @printf(i8* getelementptr inbounds ([55 x i8], [55 x i8]* @.str, i32 0, i32 0), i32 %29), !dbg !3495
  %31 = load i32, i32* %numRanks, align 4, !dbg !3496
  %32 = call i32 (i8*, ...) @printf(i8* getelementptr inbounds ([20 x i8], [20 x i8]* @.str.1, i32 0, i32 0), i32 %31), !dbg !3497
  %33 = load i32, i32* %numRanks, align 4, !dbg !3498
  %34 = getelementptr inbounds %struct.cmdLineOpts, %struct.cmdLineOpts* %opts, i32 0, i32 1, !dbg !3499
  %35 = load i32, i32* %34, align 4, !dbg !3499
  %36 = mul nsw i32 %33, %35, !dbg !3500
  %37 = getelementptr inbounds %struct.cmdLineOpts, %struct.cmdLineOpts* %opts, i32 0, i32 1, !dbg !3501
  %38 = load i32, i32* %37, align 4, !dbg !3501
  %39 = mul nsw i32 %36, %38, !dbg !3502
  %40 = getelementptr inbounds %struct.cmdLineOpts, %struct.cmdLineOpts* %opts, i32 0, i32 1, !dbg !3503
  %41 = load i32, i32* %40, align 4, !dbg !3503
  %42 = mul nsw i32 %39, %41, !dbg !3504
  %43 = sext i32 %42 to i64, !dbg !3505
  %44 = call i32 (i8*, ...) @printf(i8* getelementptr inbounds ([33 x i8], [33 x i8]* @.str.2, i32 0, i32 0), i64 %43), !dbg !3506
  %45 = call i32 (i8*, ...) @printf(i8* getelementptr inbounds ([39 x i8], [39 x i8]* @.str.3, i32 0, i32 0)), !dbg !3507
  %46 = call i32 (i8*, ...) @printf(i8* getelementptr inbounds ([56 x i8], [56 x i8]* @.str.4, i32 0, i32 0)), !dbg !3508
  %47 = call i32 (i8*, ...) @printf(i8* getelementptr inbounds ([62 x i8], [62 x i8]* @.str.5, i32 0, i32 0)), !dbg !3509
  %48 = call i32 (i8*, ...) @printf(i8* getelementptr inbounds ([60 x i8], [60 x i8]* @.str.6, i32 0, i32 0)), !dbg !3510
  %49 = call i32 (i8*, ...) @printf(i8* getelementptr inbounds ([31 x i8], [31 x i8]* @.str.7, i32 0, i32 0)), !dbg !3511
  %50 = call i32 (i8*, ...) @printf(i8* getelementptr inbounds ([43 x i8], [43 x i8]* @.str.8, i32 0, i32 0)), !dbg !3512
  %51 = call i32 (i8*, ...) @printf(i8* getelementptr inbounds ([33 x i8], [33 x i8]* @.str.9, i32 0, i32 0)), !dbg !3513
  br label %52, !dbg !3514

; <label>:52                                      ; preds = %27, %23, %0
  call void @llvm.dbg.declare(metadata i32* %col, metadata !3515, metadata !1862), !dbg !3516
  call void @llvm.dbg.declare(metadata i32* %row, metadata !3517, metadata !1862), !dbg !3518
  call void @llvm.dbg.declare(metadata i32* %plane, metadata !3519, metadata !1862), !dbg !3520
  call void @llvm.dbg.declare(metadata i32* %side, metadata !3521, metadata !1862), !dbg !3522
  %53 = load i32, i32* %numRanks, align 4, !dbg !3523
  %54 = load i32, i32* %myRank, align 4, !dbg !3524
  call void @_Z14InitMeshDecompiiPiS_S_S_(i32 %53, i32 %54, i32* %col, i32* %row, i32* %plane, i32* %side), !dbg !3525
  %55 = call noalias i8* @_Znwm(i64 1456) #16, !dbg !3526
  %56 = bitcast i8* %55 to %class.Domain*, !dbg !3526
  %57 = load i32, i32* %numRanks, align 4, !dbg !3527
  %58 = load i32, i32* %col, align 4, !dbg !3528
  %59 = load i32, i32* %row, align 4, !dbg !3529
  %60 = load i32, i32* %plane, align 4, !dbg !3530
  %61 = getelementptr inbounds %struct.cmdLineOpts, %struct.cmdLineOpts* %opts, i32 0, i32 1, !dbg !3531
  %62 = load i32, i32* %61, align 4, !dbg !3531
  %63 = load i32, i32* %side, align 4, !dbg !3532
  %64 = getelementptr inbounds %struct.cmdLineOpts, %struct.cmdLineOpts* %opts, i32 0, i32 2, !dbg !3533
  %65 = load i32, i32* %64, align 4, !dbg !3533
  %66 = getelementptr inbounds %struct.cmdLineOpts, %struct.cmdLineOpts* %opts, i32 0, i32 8, !dbg !3534
  %67 = load i32, i32* %66, align 4, !dbg !3534
  %68 = getelementptr inbounds %struct.cmdLineOpts, %struct.cmdLineOpts* %opts, i32 0, i32 7, !dbg !3535
  %69 = load i32, i32* %68, align 4, !dbg !3535
  invoke void @_ZN6DomainC1Eiiiiiiiii(%class.Domain* %56, i32 %57, i32 %58, i32 %59, i32 %60, i32 %62, i32 %63, i32 %65, i32 %67, i32 %69)
          to label %70 unwind label %113, !dbg !3536

; <label>:70                                      ; preds = %52
  store %class.Domain* %56, %class.Domain** %locDom, align 8, !dbg !3537
  call void @llvm.dbg.declare(metadata %struct.timeval* %start, metadata !3539, metadata !1862), !dbg !3540
  %71 = call i32 @gettimeofday(%struct.timeval* %start, %struct.timezone* null) #2, !dbg !3541
  br label %72, !dbg !3542

; <label>:72                                      ; preds = %117, %70
  %73 = load %class.Domain*, %class.Domain** %locDom, align 8, !dbg !3543
  %74 = call dereferenceable(8) double* @_ZN6Domain4timeEv(%class.Domain* %73), !dbg !3543
  %75 = load double, double* %74, align 8, !dbg !3543
  %76 = load %class.Domain*, %class.Domain** %locDom, align 8, !dbg !3544
  %77 = call dereferenceable(8) double* @_ZN6Domain8stoptimeEv(%class.Domain* %76), !dbg !3545
  %78 = load double, double* %77, align 8, !dbg !3544
  %79 = fcmp olt double %75, %78, !dbg !3547
  br i1 %79, label %80, label %87, !dbg !3548

; <label>:80                                      ; preds = %72
  %81 = load %class.Domain*, %class.Domain** %locDom, align 8, !dbg !3549
  %82 = call dereferenceable(4) i32* @_ZN6Domain5cycleEv(%class.Domain* %81), !dbg !3549
  %83 = load i32, i32* %82, align 4, !dbg !3549
  %84 = getelementptr inbounds %struct.cmdLineOpts, %struct.cmdLineOpts* %opts, i32 0, i32 0, !dbg !3551
  %85 = load i32, i32* %84, align 4, !dbg !3551
  %86 = icmp slt i32 %83, %85, !dbg !3552
  br label %87

; <label>:87                                      ; preds = %80, %72
  %88 = phi i1 [ false, %72 ], [ %86, %80 ]
  br i1 %88, label %89, label %118, !dbg !3553

; <label>:89                                      ; preds = %87
  %90 = load %class.Domain*, %class.Domain** %locDom, align 8, !dbg !3555
  call void @_ZL13TimeIncrementR6Domain(%class.Domain* dereferenceable(1456) %90), !dbg !3557
  %91 = load %class.Domain*, %class.Domain** %locDom, align 8, !dbg !3558
  call void @_ZL16LagrangeLeapFrogR6Domain(%class.Domain* dereferenceable(1456) %91), !dbg !3559
  %92 = getelementptr inbounds %struct.cmdLineOpts, %struct.cmdLineOpts* %opts, i32 0, i32 4, !dbg !3560
  %93 = load i32, i32* %92, align 4, !dbg !3560
  %94 = icmp ne i32 %93, 0, !dbg !3562
  br i1 %94, label %95, label %117, !dbg !3563

; <label>:95                                      ; preds = %89
  %96 = getelementptr inbounds %struct.cmdLineOpts, %struct.cmdLineOpts* %opts, i32 0, i32 5, !dbg !3564
  %97 = load i32, i32* %96, align 4, !dbg !3564
  %98 = icmp eq i32 %97, 0, !dbg !3566
  br i1 %98, label %99, label %117, !dbg !3567

; <label>:99                                      ; preds = %95
  %100 = load i32, i32* %myRank, align 4, !dbg !3568
  %101 = icmp eq i32 %100, 0, !dbg !3570
  br i1 %101, label %102, label %117, !dbg !3571

; <label>:102                                     ; preds = %99
  %103 = load %class.Domain*, %class.Domain** %locDom, align 8, !dbg !3572
  %104 = call dereferenceable(4) i32* @_ZN6Domain5cycleEv(%class.Domain* %103), !dbg !3572
  %105 = load i32, i32* %104, align 4, !dbg !3572
  %106 = load %class.Domain*, %class.Domain** %locDom, align 8, !dbg !3574
  %107 = call dereferenceable(8) double* @_ZN6Domain4timeEv(%class.Domain* %106), !dbg !3575
  %108 = load double, double* %107, align 8, !dbg !3574
  %109 = load %class.Domain*, %class.Domain** %locDom, align 8, !dbg !3577
  %110 = call dereferenceable(8) double* @_ZN6Domain9deltatimeEv(%class.Domain* %109), !dbg !3578
  %111 = load double, double* %110, align 8, !dbg !3577
  %112 = call i32 (i8*, ...) @printf(i8* getelementptr inbounds ([30 x i8], [30 x i8]* @.str.10, i32 0, i32 0), i32 %105, double %108, double %111), !dbg !3580
  br label %117, !dbg !3581

; <label>:113                                     ; preds = %52
  %114 = landingpad { i8*, i32 }
          cleanup, !dbg !3582
  %115 = extractvalue { i8*, i32 } %114, 0, !dbg !3582
  store i8* %115, i8** %4, align 8, !dbg !3582
  %116 = extractvalue { i8*, i32 } %114, 1, !dbg !3582
  store i32 %116, i32* %5, align 4, !dbg !3582
  call void @_ZdlPv(i8* %55) #17, !dbg !3583
  br label %158, !dbg !3583

; <label>:117                                     ; preds = %102, %99, %95, %89
  br label %72, !dbg !3584

; <label>:118                                     ; preds = %87
  call void @llvm.dbg.declare(metadata double* %elapsed_time, metadata !3586, metadata !1862), !dbg !3587
  call void @llvm.dbg.declare(metadata %struct.timeval* %end, metadata !3588, metadata !1862), !dbg !3589
  %119 = call i32 @gettimeofday(%struct.timeval* %end, %struct.timezone* null) #2, !dbg !3590
  %120 = getelementptr inbounds %struct.timeval, %struct.timeval* %end, i32 0, i32 0, !dbg !3591
  %121 = load i64, i64* %120, align 8, !dbg !3591
  %122 = getelementptr inbounds %struct.timeval, %struct.timeval* %start, i32 0, i32 0, !dbg !3592
  %123 = load i64, i64* %122, align 8, !dbg !3592
  %124 = sub nsw i64 %121, %123, !dbg !3593
  %125 = sitofp i64 %124 to double, !dbg !3594
  %126 = getelementptr inbounds %struct.timeval, %struct.timeval* %end, i32 0, i32 1, !dbg !3595
  %127 = load i64, i64* %126, align 8, !dbg !3595
  %128 = getelementptr inbounds %struct.timeval, %struct.timeval* %start, i32 0, i32 1, !dbg !3596
  %129 = load i64, i64* %128, align 8, !dbg !3596
  %130 = sub nsw i64 %127, %129, !dbg !3597
  %131 = sitofp i64 %130 to double, !dbg !3598
  %132 = fdiv double %131, 1.000000e+06, !dbg !3599
  %133 = fadd double %125, %132, !dbg !3600
  store double %133, double* %elapsed_time, align 8, !dbg !3601
  call void @llvm.dbg.declare(metadata double* %elapsed_timeG, metadata !3602, metadata !1862), !dbg !3603
  %134 = load double, double* %elapsed_time, align 8, !dbg !3604
  store double %134, double* %elapsed_timeG, align 8, !dbg !3605
  %135 = getelementptr inbounds %struct.cmdLineOpts, %struct.cmdLineOpts* %opts, i32 0, i32 6, !dbg !3606
  %136 = load i32, i32* %135, align 4, !dbg !3606
  %137 = icmp ne i32 %136, 0, !dbg !3608
  br i1 %137, label %138, label %144, !dbg !3609

; <label>:138                                     ; preds = %118
  %139 = load %class.Domain*, %class.Domain** %locDom, align 8, !dbg !3610
  %140 = getelementptr inbounds %struct.cmdLineOpts, %struct.cmdLineOpts* %opts, i32 0, i32 3, !dbg !3612
  %141 = load i32, i32* %140, align 4, !dbg !3612
  %142 = load i32, i32* %myRank, align 4, !dbg !3613
  %143 = load i32, i32* %numRanks, align 4, !dbg !3614
  call void @_Z11DumpToVisitR6Domainiii(%class.Domain* dereferenceable(1456) %139, i32 %141, i32 %142, i32 %143), !dbg !3615
  br label %144, !dbg !3616

; <label>:144                                     ; preds = %138, %118
  %145 = load i32, i32* %myRank, align 4, !dbg !3617
  %146 = icmp eq i32 %145, 0, !dbg !3619
  br i1 %146, label %147, label %157, !dbg !3620

; <label>:147                                     ; preds = %144
  %148 = getelementptr inbounds %struct.cmdLineOpts, %struct.cmdLineOpts* %opts, i32 0, i32 5, !dbg !3621
  %149 = load i32, i32* %148, align 4, !dbg !3621
  %150 = icmp eq i32 %149, 0, !dbg !3623
  br i1 %150, label %151, label %157, !dbg !3624

; <label>:151                                     ; preds = %147
  %152 = load double, double* %elapsed_timeG, align 8, !dbg !3625
  %153 = load %class.Domain*, %class.Domain** %locDom, align 8, !dbg !3627
  %154 = getelementptr inbounds %struct.cmdLineOpts, %struct.cmdLineOpts* %opts, i32 0, i32 1, !dbg !3628
  %155 = load i32, i32* %154, align 4, !dbg !3628
  %156 = load i32, i32* %numRanks, align 4, !dbg !3629
  call void @_Z25VerifyAndWriteFinalOutputdR6Domainii(double %152, %class.Domain* dereferenceable(1456) %153, i32 %155, i32 %156), !dbg !3630
  br label %157, !dbg !3631

; <label>:157                                     ; preds = %151, %147, %144
  ret i32 0, !dbg !3632

; <label>:158                                     ; preds = %113
  %159 = load i8*, i8** %4, align 8, !dbg !3633
  %160 = load i32, i32* %5, align 4, !dbg !3633
  %161 = insertvalue { i8*, i32 } undef, i8* %159, 0, !dbg !3633
  %162 = insertvalue { i8*, i32 } %161, i32 %160, 1, !dbg !3633
  resume { i8*, i32 } %162, !dbg !3633
}

declare void @_Z23ParseCommandLineOptionsiPPciP11cmdLineOpts(i32, i8**, i32, %struct.cmdLineOpts*) #1

declare i32 @printf(i8*, ...) #1

declare void @_Z14InitMeshDecompiiPiS_S_S_(i32, i32, i32*, i32*, i32*, i32*) #1

; Function Attrs: nobuiltin
declare noalias i8* @_Znwm(i64) #8

declare void @_ZN6DomainC1Eiiiiiiiii(%class.Domain*, i32, i32, i32, i32, i32, i32, i32, i32, i32) #1

declare i32 @__gxx_personality_v0(...)

; Function Attrs: nobuiltin nounwind
declare void @_ZdlPv(i8*) #9

; Function Attrs: nounwind
declare i32 @gettimeofday(%struct.timeval*, %struct.timezone*) #10

; Function Attrs: nounwind uwtable
define linkonce_odr dereferenceable(8) double* @_ZN6Domain4timeEv(%class.Domain* %this) #6 comdat align 2 !dbg !1217 {
  %1 = alloca %class.Domain*, align 8
  store %class.Domain* %this, %class.Domain** %1, align 8
  call void @llvm.dbg.declare(metadata %class.Domain** %1, metadata !3634, metadata !1862), !dbg !3635
  %2 = load %class.Domain*, %class.Domain** %1, align 8
  %3 = getelementptr inbounds %class.Domain, %class.Domain* %2, i32 0, i32 74, !dbg !3636
  ret double* %3, !dbg !3637
}

; Function Attrs: nounwind uwtable
define linkonce_odr dereferenceable(8) double* @_ZN6Domain8stoptimeEv(%class.Domain* %this) #6 comdat align 2 !dbg !1218 {
  %1 = alloca %class.Domain*, align 8
  store %class.Domain* %this, %class.Domain** %1, align 8
  call void @llvm.dbg.declare(metadata %class.Domain** %1, metadata !3638, metadata !1862), !dbg !3639
  %2 = load %class.Domain*, %class.Domain** %1, align 8
  %3 = getelementptr inbounds %class.Domain, %class.Domain* %2, i32 0, i32 79, !dbg !3640
  ret double* %3, !dbg !3641
}

; Function Attrs: nounwind uwtable
define linkonce_odr dereferenceable(4) i32* @_ZN6Domain5cycleEv(%class.Domain* %this) #6 comdat align 2 !dbg !1219 {
  %1 = alloca %class.Domain*, align 8
  store %class.Domain* %this, %class.Domain** %1, align 8
  call void @llvm.dbg.declare(metadata %class.Domain** %1, metadata !3642, metadata !1862), !dbg !3643
  %2 = load %class.Domain*, %class.Domain** %1, align 8
  %3 = getelementptr inbounds %class.Domain, %class.Domain* %2, i32 0, i32 72, !dbg !3644
  ret i32* %3, !dbg !3645
}

; Function Attrs: inlinehint uwtable
define internal void @_ZL13TimeIncrementR6Domain(%class.Domain* dereferenceable(1456) %domain) #5 !dbg !1220 {
  %1 = alloca %class.Domain*, align 8
  %targetdt = alloca double, align 8
  %ratio = alloca double, align 8
  %olddt = alloca double, align 8
  %gnewdt = alloca double, align 8
  %newdt = alloca double, align 8
  store %class.Domain* %domain, %class.Domain** %1, align 8
  call void @llvm.dbg.declare(metadata %class.Domain** %1, metadata !3646, metadata !1862), !dbg !3647
  call void @llvm.dbg.declare(metadata double* %targetdt, metadata !3648, metadata !1862), !dbg !3649
  %2 = load %class.Domain*, %class.Domain** %1, align 8, !dbg !3650
  %3 = call dereferenceable(8) double* @_ZN6Domain8stoptimeEv(%class.Domain* %2), !dbg !3650
  %4 = load double, double* %3, align 8, !dbg !3650
  %5 = load %class.Domain*, %class.Domain** %1, align 8, !dbg !3651
  %6 = call dereferenceable(8) double* @_ZN6Domain4timeEv(%class.Domain* %5), !dbg !3652
  %7 = load double, double* %6, align 8, !dbg !3651
  %8 = fsub double %4, %7, !dbg !3654
  store double %8, double* %targetdt, align 8, !dbg !3649
  %9 = load %class.Domain*, %class.Domain** %1, align 8, !dbg !3655
  %10 = call dereferenceable(8) double* @_ZN6Domain7dtfixedEv(%class.Domain* %9), !dbg !3655
  %11 = load double, double* %10, align 8, !dbg !3655
  %12 = fcmp ole double %11, 0.000000e+00, !dbg !3657
  br i1 %12, label %13, label %87, !dbg !3658

; <label>:13                                      ; preds = %0
  %14 = load %class.Domain*, %class.Domain** %1, align 8, !dbg !3659
  %15 = call dereferenceable(4) i32* @_ZN6Domain5cycleEv(%class.Domain* %14), !dbg !3659
  %16 = load i32, i32* %15, align 4, !dbg !3659
  %17 = icmp ne i32 %16, 0, !dbg !3661
  br i1 %17, label %18, label %87, !dbg !3662

; <label>:18                                      ; preds = %13
  call void @llvm.dbg.declare(metadata double* %ratio, metadata !3663, metadata !1862), !dbg !3665
  call void @llvm.dbg.declare(metadata double* %olddt, metadata !3666, metadata !1862), !dbg !3667
  %19 = load %class.Domain*, %class.Domain** %1, align 8, !dbg !3668
  %20 = call dereferenceable(8) double* @_ZN6Domain9deltatimeEv(%class.Domain* %19), !dbg !3668
  %21 = load double, double* %20, align 8, !dbg !3668
  store double %21, double* %olddt, align 8, !dbg !3667
  call void @llvm.dbg.declare(metadata double* %gnewdt, metadata !3669, metadata !1862), !dbg !3670
  store double 1.000000e+20, double* %gnewdt, align 8, !dbg !3670
  call void @llvm.dbg.declare(metadata double* %newdt, metadata !3671, metadata !1862), !dbg !3672
  %22 = load %class.Domain*, %class.Domain** %1, align 8, !dbg !3673
  %23 = call dereferenceable(8) double* @_ZN6Domain9dtcourantEv(%class.Domain* %22), !dbg !3673
  %24 = load double, double* %23, align 8, !dbg !3673
  %25 = load double, double* %gnewdt, align 8, !dbg !3675
  %26 = fcmp olt double %24, %25, !dbg !3676
  br i1 %26, label %27, label %32, !dbg !3677

; <label>:27                                      ; preds = %18
  %28 = load %class.Domain*, %class.Domain** %1, align 8, !dbg !3678
  %29 = call dereferenceable(8) double* @_ZN6Domain9dtcourantEv(%class.Domain* %28), !dbg !3678
  %30 = load double, double* %29, align 8, !dbg !3678
  %31 = fdiv double %30, 2.000000e+00, !dbg !3680
  store double %31, double* %gnewdt, align 8, !dbg !3681
  br label %32, !dbg !3682

; <label>:32                                      ; preds = %27, %18
  %33 = load %class.Domain*, %class.Domain** %1, align 8, !dbg !3683
  %34 = call dereferenceable(8) double* @_ZN6Domain7dthydroEv(%class.Domain* %33), !dbg !3683
  %35 = load double, double* %34, align 8, !dbg !3683
  %36 = load double, double* %gnewdt, align 8, !dbg !3685
  %37 = fcmp olt double %35, %36, !dbg !3686
  br i1 %37, label %38, label %44, !dbg !3687

; <label>:38                                      ; preds = %32
  %39 = load %class.Domain*, %class.Domain** %1, align 8, !dbg !3688
  %40 = call dereferenceable(8) double* @_ZN6Domain7dthydroEv(%class.Domain* %39), !dbg !3688
  %41 = load double, double* %40, align 8, !dbg !3688
  %42 = fmul double %41, 2.000000e+00, !dbg !3690
  %43 = fdiv double %42, 3.000000e+00, !dbg !3691
  store double %43, double* %gnewdt, align 8, !dbg !3692
  br label %44, !dbg !3693

; <label>:44                                      ; preds = %38, %32
  %45 = load double, double* %gnewdt, align 8, !dbg !3694
  store double %45, double* %newdt, align 8, !dbg !3695
  %46 = load double, double* %newdt, align 8, !dbg !3696
  %47 = load double, double* %olddt, align 8, !dbg !3697
  %48 = fdiv double %46, %47, !dbg !3698
  store double %48, double* %ratio, align 8, !dbg !3699
  %49 = load double, double* %ratio, align 8, !dbg !3700
  %50 = fcmp oge double %49, 1.000000e+00, !dbg !3702
  br i1 %50, label %51, label %73, !dbg !3703

; <label>:51                                      ; preds = %44
  %52 = load double, double* %ratio, align 8, !dbg !3704
  %53 = load %class.Domain*, %class.Domain** %1, align 8, !dbg !3707
  %54 = call dereferenceable(8) double* @_ZN6Domain15deltatimemultlbEv(%class.Domain* %53), !dbg !3707
  %55 = load double, double* %54, align 8, !dbg !3707
  %56 = fcmp olt double %52, %55, !dbg !3708
  br i1 %56, label %57, label %59, !dbg !3709

; <label>:57                                      ; preds = %51
  %58 = load double, double* %olddt, align 8, !dbg !3710
  store double %58, double* %newdt, align 8, !dbg !3712
  br label %72, !dbg !3713

; <label>:59                                      ; preds = %51
  %60 = load double, double* %ratio, align 8, !dbg !3714
  %61 = load %class.Domain*, %class.Domain** %1, align 8, !dbg !3716
  %62 = call dereferenceable(8) double* @_ZN6Domain15deltatimemultubEv(%class.Domain* %61), !dbg !3716
  %63 = load double, double* %62, align 8, !dbg !3716
  %64 = fcmp ogt double %60, %63, !dbg !3717
  br i1 %64, label %65, label %71, !dbg !3718

; <label>:65                                      ; preds = %59
  %66 = load double, double* %olddt, align 8, !dbg !3719
  %67 = load %class.Domain*, %class.Domain** %1, align 8, !dbg !3721
  %68 = call dereferenceable(8) double* @_ZN6Domain15deltatimemultubEv(%class.Domain* %67), !dbg !3721
  %69 = load double, double* %68, align 8, !dbg !3721
  %70 = fmul double %66, %69, !dbg !3722
  store double %70, double* %newdt, align 8, !dbg !3723
  br label %71, !dbg !3724

; <label>:71                                      ; preds = %65, %59
  br label %72

; <label>:72                                      ; preds = %71, %57
  br label %73, !dbg !3725

; <label>:73                                      ; preds = %72, %44
  %74 = load double, double* %newdt, align 8, !dbg !3726
  %75 = load %class.Domain*, %class.Domain** %1, align 8, !dbg !3728
  %76 = call dereferenceable(8) double* @_ZN6Domain5dtmaxEv(%class.Domain* %75), !dbg !3728
  %77 = load double, double* %76, align 8, !dbg !3728
  %78 = fcmp ogt double %74, %77, !dbg !3729
  br i1 %78, label %79, label %83, !dbg !3730

; <label>:79                                      ; preds = %73
  %80 = load %class.Domain*, %class.Domain** %1, align 8, !dbg !3731
  %81 = call dereferenceable(8) double* @_ZN6Domain5dtmaxEv(%class.Domain* %80), !dbg !3731
  %82 = load double, double* %81, align 8, !dbg !3731
  store double %82, double* %newdt, align 8, !dbg !3733
  br label %83, !dbg !3734

; <label>:83                                      ; preds = %79, %73
  %84 = load double, double* %newdt, align 8, !dbg !3735
  %85 = load %class.Domain*, %class.Domain** %1, align 8, !dbg !3736
  %86 = call dereferenceable(8) double* @_ZN6Domain9deltatimeEv(%class.Domain* %85), !dbg !3736
  store double %84, double* %86, align 8, !dbg !3737
  br label %87, !dbg !3738

; <label>:87                                      ; preds = %83, %13, %0
  %88 = load double, double* %targetdt, align 8, !dbg !3739
  %89 = load %class.Domain*, %class.Domain** %1, align 8, !dbg !3741
  %90 = call dereferenceable(8) double* @_ZN6Domain9deltatimeEv(%class.Domain* %89), !dbg !3741
  %91 = load double, double* %90, align 8, !dbg !3741
  %92 = fcmp ogt double %88, %91, !dbg !3742
  br i1 %92, label %93, label %107, !dbg !3743

; <label>:93                                      ; preds = %87
  %94 = load double, double* %targetdt, align 8, !dbg !3744
  %95 = load %class.Domain*, %class.Domain** %1, align 8, !dbg !3745
  %96 = call dereferenceable(8) double* @_ZN6Domain9deltatimeEv(%class.Domain* %95), !dbg !3745
  %97 = load double, double* %96, align 8, !dbg !3745
  %98 = fmul double 4.000000e+00, %97, !dbg !3746
  %99 = fdiv double %98, 3.000000e+00, !dbg !3747
  %100 = fcmp olt double %94, %99, !dbg !3748
  br i1 %100, label %101, label %107, !dbg !3749

; <label>:101                                     ; preds = %93
  %102 = load %class.Domain*, %class.Domain** %1, align 8, !dbg !3750
  %103 = call dereferenceable(8) double* @_ZN6Domain9deltatimeEv(%class.Domain* %102), !dbg !3750
  %104 = load double, double* %103, align 8, !dbg !3750
  %105 = fmul double 2.000000e+00, %104, !dbg !3752
  %106 = fdiv double %105, 3.000000e+00, !dbg !3753
  store double %106, double* %targetdt, align 8, !dbg !3754
  br label %107, !dbg !3755

; <label>:107                                     ; preds = %101, %93, %87
  %108 = load double, double* %targetdt, align 8, !dbg !3756
  %109 = load %class.Domain*, %class.Domain** %1, align 8, !dbg !3758
  %110 = call dereferenceable(8) double* @_ZN6Domain9deltatimeEv(%class.Domain* %109), !dbg !3758
  %111 = load double, double* %110, align 8, !dbg !3758
  %112 = fcmp olt double %108, %111, !dbg !3759
  br i1 %112, label %113, label %117, !dbg !3760

; <label>:113                                     ; preds = %107
  %114 = load double, double* %targetdt, align 8, !dbg !3761
  %115 = load %class.Domain*, %class.Domain** %1, align 8, !dbg !3763
  %116 = call dereferenceable(8) double* @_ZN6Domain9deltatimeEv(%class.Domain* %115), !dbg !3763
  store double %114, double* %116, align 8, !dbg !3764
  br label %117, !dbg !3765

; <label>:117                                     ; preds = %113, %107
  %118 = load %class.Domain*, %class.Domain** %1, align 8, !dbg !3766
  %119 = call dereferenceable(8) double* @_ZN6Domain9deltatimeEv(%class.Domain* %118), !dbg !3766
  %120 = load double, double* %119, align 8, !dbg !3766
  %121 = load %class.Domain*, %class.Domain** %1, align 8, !dbg !3767
  %122 = call dereferenceable(8) double* @_ZN6Domain4timeEv(%class.Domain* %121), !dbg !3768
  %123 = load double, double* %122, align 8, !dbg !3769
  %124 = fadd double %123, %120, !dbg !3769
  store double %124, double* %122, align 8, !dbg !3769
  %125 = load %class.Domain*, %class.Domain** %1, align 8, !dbg !3770
  %126 = call dereferenceable(4) i32* @_ZN6Domain5cycleEv(%class.Domain* %125), !dbg !3770
  %127 = load i32, i32* %126, align 4, !dbg !3771
  %128 = add nsw i32 %127, 1, !dbg !3771
  store i32 %128, i32* %126, align 4, !dbg !3771
  ret void, !dbg !3772
}

; Function Attrs: inlinehint uwtable
define internal void @_ZL16LagrangeLeapFrogR6Domain(%class.Domain* dereferenceable(1456) %domain) #5 !dbg !1229 {
  %1 = alloca %class.Domain*, align 8
  store %class.Domain* %domain, %class.Domain** %1, align 8
  call void @llvm.dbg.declare(metadata %class.Domain** %1, metadata !3773, metadata !1862), !dbg !3774
  %2 = load %class.Domain*, %class.Domain** %1, align 8, !dbg !3775
  call void @_ZL13LagrangeNodalR6Domain(%class.Domain* dereferenceable(1456) %2), !dbg !3776
  %3 = load %class.Domain*, %class.Domain** %1, align 8, !dbg !3777
  %4 = load %class.Domain*, %class.Domain** %1, align 8, !dbg !3778
  %5 = call dereferenceable(4) i32* @_ZN6Domain7numElemEv(%class.Domain* %4), !dbg !3778
  %6 = load i32, i32* %5, align 4, !dbg !3778
  call void @_ZL16LagrangeElementsR6Domaini(%class.Domain* dereferenceable(1456) %3, i32 %6), !dbg !3779
  %7 = load %class.Domain*, %class.Domain** %1, align 8, !dbg !3781
  call void @_ZL27CalcTimeConstraintsForElemsR6Domain(%class.Domain* dereferenceable(1456) %7), !dbg !3782
  ret void, !dbg !3783
}

; Function Attrs: nounwind uwtable
define linkonce_odr dereferenceable(8) double* @_ZN6Domain9deltatimeEv(%class.Domain* %this) #6 comdat align 2 !dbg !1504 {
  %1 = alloca %class.Domain*, align 8
  store %class.Domain* %this, %class.Domain** %1, align 8
  call void @llvm.dbg.declare(metadata %class.Domain** %1, metadata !3784, metadata !1862), !dbg !3785
  %2 = load %class.Domain*, %class.Domain** %1, align 8
  %3 = getelementptr inbounds %class.Domain, %class.Domain* %2, i32 0, i32 75, !dbg !3786
  ret double* %3, !dbg !3787
}

declare void @_Z11DumpToVisitR6Domainiii(%class.Domain* dereferenceable(1456), i32, i32, i32) #1

declare void @_Z25VerifyAndWriteFinalOutputdR6Domainii(double, %class.Domain* dereferenceable(1456), i32, i32) #1

; Function Attrs: nounwind uwtable
define linkonce_odr dereferenceable(4) i32* @_ZNSt6vectorIiSaIiEEixEm(%"class.std::vector.0"* %this, i64 %__n) #6 comdat align 2 !dbg !1171 {
  %1 = alloca %"class.std::vector.0"*, align 8
  %2 = alloca i64, align 8
  store %"class.std::vector.0"* %this, %"class.std::vector.0"** %1, align 8
  call void @llvm.dbg.declare(metadata %"class.std::vector.0"** %1, metadata !3788, metadata !1862), !dbg !3790
  store i64 %__n, i64* %2, align 8
  call void @llvm.dbg.declare(metadata i64* %2, metadata !3791, metadata !1862), !dbg !3792
  %3 = load %"class.std::vector.0"*, %"class.std::vector.0"** %1, align 8
  %4 = bitcast %"class.std::vector.0"* %3 to %"struct.std::_Vector_base.1"*, !dbg !3793
  %5 = getelementptr inbounds %"struct.std::_Vector_base.1", %"struct.std::_Vector_base.1"* %4, i32 0, i32 0, !dbg !3793
  %6 = getelementptr inbounds %"struct.std::_Vector_base<int, std::allocator<int> >::_Vector_impl", %"struct.std::_Vector_base<int, std::allocator<int> >::_Vector_impl"* %5, i32 0, i32 0, !dbg !3794
  %7 = load i32*, i32** %6, align 8, !dbg !3794
  %8 = load i64, i64* %2, align 8, !dbg !3795
  %9 = getelementptr inbounds i32, i32* %7, i64 %8, !dbg !3796
  ret i32* %9, !dbg !3797
}

; Function Attrs: uwtable
define linkonce_odr dereferenceable(8) double* @_ZN6Domain1xEi(%class.Domain* %this, i32 %idx) #0 comdat align 2 !dbg !1177 {
  %1 = alloca %class.Domain*, align 8
  %2 = alloca i32, align 4
  store %class.Domain* %this, %class.Domain** %1, align 8
  call void @llvm.dbg.declare(metadata %class.Domain** %1, metadata !3798, metadata !1862), !dbg !3799
  store i32 %idx, i32* %2, align 4
  call void @llvm.dbg.declare(metadata i32* %2, metadata !3800, metadata !1862), !dbg !3801
  %3 = load %class.Domain*, %class.Domain** %1, align 8
  %4 = getelementptr inbounds %class.Domain, %class.Domain* %3, i32 0, i32 0, !dbg !3802
  %5 = load i32, i32* %2, align 4, !dbg !3803
  %6 = sext i32 %5 to i64, !dbg !3803
  %7 = call dereferenceable(8) double* @_ZNSt6vectorIdSaIdEEixEm(%"class.std::vector"* %4, i64 %6), !dbg !3802
  ret double* %7, !dbg !3804
}

; Function Attrs: nounwind uwtable
define linkonce_odr dereferenceable(8) double* @_ZN6Domain1yEi(%class.Domain* %this, i32 %idx) #6 comdat align 2 !dbg !1179 {
  %1 = alloca %class.Domain*, align 8
  %2 = alloca i32, align 4
  store %class.Domain* %this, %class.Domain** %1, align 8
  call void @llvm.dbg.declare(metadata %class.Domain** %1, metadata !3805, metadata !1862), !dbg !3806
  store i32 %idx, i32* %2, align 4
  call void @llvm.dbg.declare(metadata i32* %2, metadata !3807, metadata !1862), !dbg !3808
  %3 = load %class.Domain*, %class.Domain** %1, align 8
  %4 = getelementptr inbounds %class.Domain, %class.Domain* %3, i32 0, i32 1, !dbg !3809
  %5 = load i32, i32* %2, align 4, !dbg !3810
  %6 = sext i32 %5 to i64, !dbg !3810
  %7 = call dereferenceable(8) double* @_ZNSt6vectorIdSaIdEEixEm(%"class.std::vector"* %4, i64 %6), !dbg !3809
  ret double* %7, !dbg !3811
}

; Function Attrs: nounwind uwtable
define linkonce_odr dereferenceable(8) double* @_ZN6Domain1zEi(%class.Domain* %this, i32 %idx) #6 comdat align 2 !dbg !1180 {
  %1 = alloca %class.Domain*, align 8
  %2 = alloca i32, align 4
  store %class.Domain* %this, %class.Domain** %1, align 8
  call void @llvm.dbg.declare(metadata %class.Domain** %1, metadata !3812, metadata !1862), !dbg !3813
  store i32 %idx, i32* %2, align 4
  call void @llvm.dbg.declare(metadata i32* %2, metadata !3814, metadata !1862), !dbg !3815
  %3 = load %class.Domain*, %class.Domain** %1, align 8
  %4 = getelementptr inbounds %class.Domain, %class.Domain* %3, i32 0, i32 2, !dbg !3816
  %5 = load i32, i32* %2, align 4, !dbg !3817
  %6 = sext i32 %5 to i64, !dbg !3817
  %7 = call dereferenceable(8) double* @_ZNSt6vectorIdSaIdEEixEm(%"class.std::vector"* %4, i64 %6), !dbg !3816
  ret double* %7, !dbg !3818
}

; Function Attrs: nounwind uwtable
define linkonce_odr dereferenceable(8) double* @_ZNSt6vectorIdSaIdEEixEm(%"class.std::vector"* %this, i64 %__n) #6 comdat align 2 !dbg !1178 {
  %1 = alloca %"class.std::vector"*, align 8
  %2 = alloca i64, align 8
  store %"class.std::vector"* %this, %"class.std::vector"** %1, align 8
  call void @llvm.dbg.declare(metadata %"class.std::vector"** %1, metadata !3819, metadata !1862), !dbg !3821
  store i64 %__n, i64* %2, align 8
  call void @llvm.dbg.declare(metadata i64* %2, metadata !3822, metadata !1862), !dbg !3823
  %3 = load %"class.std::vector"*, %"class.std::vector"** %1, align 8
  %4 = bitcast %"class.std::vector"* %3 to %"struct.std::_Vector_base"*, !dbg !3824
  %5 = getelementptr inbounds %"struct.std::_Vector_base", %"struct.std::_Vector_base"* %4, i32 0, i32 0, !dbg !3824
  %6 = getelementptr inbounds %"struct.std::_Vector_base<double, std::allocator<double> >::_Vector_impl", %"struct.std::_Vector_base<double, std::allocator<double> >::_Vector_impl"* %5, i32 0, i32 0, !dbg !3825
  %7 = load double*, double** %6, align 8, !dbg !3825
  %8 = load i64, i64* %2, align 8, !dbg !3826
  %9 = getelementptr inbounds double, double* %7, i64 %8, !dbg !3827
  ret double* %9, !dbg !3828
}

; Function Attrs: inlinehint nounwind uwtable
define internal double @_ZL8AreaFacedddddddddddd(double %x0, double %x1, double %x2, double %x3, double %y0, double %y1, double %y2, double %y3, double %z0, double %z1, double %z2, double %z3) #4 !dbg !1187 {
  %1 = alloca double, align 8
  %2 = alloca double, align 8
  %3 = alloca double, align 8
  %4 = alloca double, align 8
  %5 = alloca double, align 8
  %6 = alloca double, align 8
  %7 = alloca double, align 8
  %8 = alloca double, align 8
  %9 = alloca double, align 8
  %10 = alloca double, align 8
  %11 = alloca double, align 8
  %12 = alloca double, align 8
  %fx = alloca double, align 8
  %fy = alloca double, align 8
  %fz = alloca double, align 8
  %gx = alloca double, align 8
  %gy = alloca double, align 8
  %gz = alloca double, align 8
  %area = alloca double, align 8
  store double %x0, double* %1, align 8
  call void @llvm.dbg.declare(metadata double* %1, metadata !3829, metadata !1862), !dbg !3830
  store double %x1, double* %2, align 8
  call void @llvm.dbg.declare(metadata double* %2, metadata !3831, metadata !1862), !dbg !3832
  store double %x2, double* %3, align 8
  call void @llvm.dbg.declare(metadata double* %3, metadata !3833, metadata !1862), !dbg !3834
  store double %x3, double* %4, align 8
  call void @llvm.dbg.declare(metadata double* %4, metadata !3835, metadata !1862), !dbg !3836
  store double %y0, double* %5, align 8
  call void @llvm.dbg.declare(metadata double* %5, metadata !3837, metadata !1862), !dbg !3838
  store double %y1, double* %6, align 8
  call void @llvm.dbg.declare(metadata double* %6, metadata !3839, metadata !1862), !dbg !3840
  store double %y2, double* %7, align 8
  call void @llvm.dbg.declare(metadata double* %7, metadata !3841, metadata !1862), !dbg !3842
  store double %y3, double* %8, align 8
  call void @llvm.dbg.declare(metadata double* %8, metadata !3843, metadata !1862), !dbg !3844
  store double %z0, double* %9, align 8
  call void @llvm.dbg.declare(metadata double* %9, metadata !3845, metadata !1862), !dbg !3846
  store double %z1, double* %10, align 8
  call void @llvm.dbg.declare(metadata double* %10, metadata !3847, metadata !1862), !dbg !3848
  store double %z2, double* %11, align 8
  call void @llvm.dbg.declare(metadata double* %11, metadata !3849, metadata !1862), !dbg !3850
  store double %z3, double* %12, align 8
  call void @llvm.dbg.declare(metadata double* %12, metadata !3851, metadata !1862), !dbg !3852
  call void @llvm.dbg.declare(metadata double* %fx, metadata !3853, metadata !1862), !dbg !3854
  %13 = load double, double* %3, align 8, !dbg !3855
  %14 = load double, double* %1, align 8, !dbg !3856
  %15 = fsub double %13, %14, !dbg !3857
  %16 = load double, double* %4, align 8, !dbg !3858
  %17 = load double, double* %2, align 8, !dbg !3859
  %18 = fsub double %16, %17, !dbg !3860
  %19 = fsub double %15, %18, !dbg !3861
  store double %19, double* %fx, align 8, !dbg !3854
  call void @llvm.dbg.declare(metadata double* %fy, metadata !3862, metadata !1862), !dbg !3863
  %20 = load double, double* %7, align 8, !dbg !3864
  %21 = load double, double* %5, align 8, !dbg !3865
  %22 = fsub double %20, %21, !dbg !3866
  %23 = load double, double* %8, align 8, !dbg !3867
  %24 = load double, double* %6, align 8, !dbg !3868
  %25 = fsub double %23, %24, !dbg !3869
  %26 = fsub double %22, %25, !dbg !3870
  store double %26, double* %fy, align 8, !dbg !3863
  call void @llvm.dbg.declare(metadata double* %fz, metadata !3871, metadata !1862), !dbg !3872
  %27 = load double, double* %11, align 8, !dbg !3873
  %28 = load double, double* %9, align 8, !dbg !3874
  %29 = fsub double %27, %28, !dbg !3875
  %30 = load double, double* %12, align 8, !dbg !3876
  %31 = load double, double* %10, align 8, !dbg !3877
  %32 = fsub double %30, %31, !dbg !3878
  %33 = fsub double %29, %32, !dbg !3879
  store double %33, double* %fz, align 8, !dbg !3872
  call void @llvm.dbg.declare(metadata double* %gx, metadata !3880, metadata !1862), !dbg !3881
  %34 = load double, double* %3, align 8, !dbg !3882
  %35 = load double, double* %1, align 8, !dbg !3883
  %36 = fsub double %34, %35, !dbg !3884
  %37 = load double, double* %4, align 8, !dbg !3885
  %38 = load double, double* %2, align 8, !dbg !3886
  %39 = fsub double %37, %38, !dbg !3887
  %40 = fadd double %36, %39, !dbg !3888
  store double %40, double* %gx, align 8, !dbg !3881
  call void @llvm.dbg.declare(metadata double* %gy, metadata !3889, metadata !1862), !dbg !3890
  %41 = load double, double* %7, align 8, !dbg !3891
  %42 = load double, double* %5, align 8, !dbg !3892
  %43 = fsub double %41, %42, !dbg !3893
  %44 = load double, double* %8, align 8, !dbg !3894
  %45 = load double, double* %6, align 8, !dbg !3895
  %46 = fsub double %44, %45, !dbg !3896
  %47 = fadd double %43, %46, !dbg !3897
  store double %47, double* %gy, align 8, !dbg !3890
  call void @llvm.dbg.declare(metadata double* %gz, metadata !3898, metadata !1862), !dbg !3899
  %48 = load double, double* %11, align 8, !dbg !3900
  %49 = load double, double* %9, align 8, !dbg !3901
  %50 = fsub double %48, %49, !dbg !3902
  %51 = load double, double* %12, align 8, !dbg !3903
  %52 = load double, double* %10, align 8, !dbg !3904
  %53 = fsub double %51, %52, !dbg !3905
  %54 = fadd double %50, %53, !dbg !3906
  store double %54, double* %gz, align 8, !dbg !3899
  call void @llvm.dbg.declare(metadata double* %area, metadata !3907, metadata !1862), !dbg !3908
  %55 = load double, double* %fx, align 8, !dbg !3909
  %56 = load double, double* %fx, align 8, !dbg !3910
  %57 = fmul double %55, %56, !dbg !3911
  %58 = load double, double* %fy, align 8, !dbg !3912
  %59 = load double, double* %fy, align 8, !dbg !3913
  %60 = fmul double %58, %59, !dbg !3914
  %61 = fadd double %57, %60, !dbg !3915
  %62 = load double, double* %fz, align 8, !dbg !3916
  %63 = load double, double* %fz, align 8, !dbg !3917
  %64 = fmul double %62, %63, !dbg !3918
  %65 = fadd double %61, %64, !dbg !3919
  %66 = load double, double* %gx, align 8, !dbg !3920
  %67 = load double, double* %gx, align 8, !dbg !3921
  %68 = fmul double %66, %67, !dbg !3922
  %69 = load double, double* %gy, align 8, !dbg !3923
  %70 = load double, double* %gy, align 8, !dbg !3924
  %71 = fmul double %69, %70, !dbg !3925
  %72 = fadd double %68, %71, !dbg !3926
  %73 = load double, double* %gz, align 8, !dbg !3927
  %74 = load double, double* %gz, align 8, !dbg !3928
  %75 = fmul double %73, %74, !dbg !3929
  %76 = fadd double %72, %75, !dbg !3930
  %77 = fmul double %65, %76, !dbg !3931
  %78 = load double, double* %fx, align 8, !dbg !3932
  %79 = load double, double* %gx, align 8, !dbg !3933
  %80 = fmul double %78, %79, !dbg !3934
  %81 = load double, double* %fy, align 8, !dbg !3935
  %82 = load double, double* %gy, align 8, !dbg !3936
  %83 = fmul double %81, %82, !dbg !3937
  %84 = fadd double %80, %83, !dbg !3938
  %85 = load double, double* %fz, align 8, !dbg !3939
  %86 = load double, double* %gz, align 8, !dbg !3940
  %87 = fmul double %85, %86, !dbg !3941
  %88 = fadd double %84, %87, !dbg !3942
  %89 = load double, double* %fx, align 8, !dbg !3943
  %90 = load double, double* %gx, align 8, !dbg !3944
  %91 = fmul double %89, %90, !dbg !3945
  %92 = load double, double* %fy, align 8, !dbg !3946
  %93 = load double, double* %gy, align 8, !dbg !3947
  %94 = fmul double %92, %93, !dbg !3948
  %95 = fadd double %91, %94, !dbg !3949
  %96 = load double, double* %fz, align 8, !dbg !3950
  %97 = load double, double* %gz, align 8, !dbg !3951
  %98 = fmul double %96, %97, !dbg !3952
  %99 = fadd double %95, %98, !dbg !3953
  %100 = fmul double %88, %99, !dbg !3954
  %101 = fsub double %77, %100, !dbg !3955
  store double %101, double* %area, align 8, !dbg !3908
  %102 = load double, double* %area, align 8, !dbg !3956
  ret double %102, !dbg !3957
}

; Function Attrs: inlinehint nounwind uwtable
define linkonce_odr dereferenceable(8) double* @_ZSt3maxIdERKT_S2_S2_(double* dereferenceable(8) %__a, double* dereferenceable(8) %__b) #4 comdat !dbg !1190 {
  %1 = alloca double*, align 8
  %2 = alloca double*, align 8
  %3 = alloca double*, align 8
  store double* %__a, double** %2, align 8
  call void @llvm.dbg.declare(metadata double** %2, metadata !3958, metadata !1862), !dbg !3959
  store double* %__b, double** %3, align 8
  call void @llvm.dbg.declare(metadata double** %3, metadata !3960, metadata !1862), !dbg !3961
  %4 = load double*, double** %2, align 8, !dbg !3962
  %5 = load double, double* %4, align 8, !dbg !3962
  %6 = load double*, double** %3, align 8, !dbg !3964
  %7 = load double, double* %6, align 8, !dbg !3964
  %8 = fcmp olt double %5, %7, !dbg !3965
  br i1 %8, label %9, label %11, !dbg !3966

; <label>:9                                       ; preds = %0
  %10 = load double*, double** %3, align 8, !dbg !3967
  store double* %10, double** %1, align 8, !dbg !3968
  br label %13, !dbg !3968

; <label>:11                                      ; preds = %0
  %12 = load double*, double** %2, align 8, !dbg !3969
  store double* %12, double** %1, align 8, !dbg !3970
  br label %13, !dbg !3970

; <label>:13                                      ; preds = %11, %9
  %14 = load double*, double** %1, align 8, !dbg !3971
  ret double* %14, !dbg !3971
}

; Function Attrs: inlinehint nounwind uwtable
define linkonce_odr double @_Z4SQRTd(double %arg) #4 comdat !dbg !1193 {
  %1 = alloca double, align 8
  store double %arg, double* %1, align 8
  call void @llvm.dbg.declare(metadata double* %1, metadata !3972, metadata !1862), !dbg !3973
  %2 = load double, double* %1, align 8, !dbg !3974
  %3 = call double @sqrt(double %2) #2, !dbg !3975
  ret double %3, !dbg !3976
}

; Function Attrs: nounwind
declare double @sqrt(double) #10

; Function Attrs: nounwind uwtable
define linkonce_odr dereferenceable(8) double* @_ZN6Domain7dtfixedEv(%class.Domain* %this) #6 comdat align 2 !dbg !1223 {
  %1 = alloca %class.Domain*, align 8
  store %class.Domain* %this, %class.Domain** %1, align 8
  call void @llvm.dbg.declare(metadata %class.Domain** %1, metadata !3977, metadata !1862), !dbg !3978
  %2 = load %class.Domain*, %class.Domain** %1, align 8
  %3 = getelementptr inbounds %class.Domain, %class.Domain* %2, i32 0, i32 73, !dbg !3979
  ret double* %3, !dbg !3980
}

; Function Attrs: nounwind uwtable
define linkonce_odr dereferenceable(8) double* @_ZN6Domain9dtcourantEv(%class.Domain* %this) #6 comdat align 2 !dbg !1224 {
  %1 = alloca %class.Domain*, align 8
  store %class.Domain* %this, %class.Domain** %1, align 8
  call void @llvm.dbg.declare(metadata %class.Domain** %1, metadata !3981, metadata !1862), !dbg !3982
  %2 = load %class.Domain*, %class.Domain** %1, align 8
  %3 = getelementptr inbounds %class.Domain, %class.Domain* %2, i32 0, i32 70, !dbg !3983
  ret double* %3, !dbg !3984
}

; Function Attrs: nounwind uwtable
define linkonce_odr dereferenceable(8) double* @_ZN6Domain7dthydroEv(%class.Domain* %this) #6 comdat align 2 !dbg !1225 {
  %1 = alloca %class.Domain*, align 8
  store %class.Domain* %this, %class.Domain** %1, align 8
  call void @llvm.dbg.declare(metadata %class.Domain** %1, metadata !3985, metadata !1862), !dbg !3986
  %2 = load %class.Domain*, %class.Domain** %1, align 8
  %3 = getelementptr inbounds %class.Domain, %class.Domain* %2, i32 0, i32 71, !dbg !3987
  ret double* %3, !dbg !3988
}

; Function Attrs: nounwind uwtable
define linkonce_odr dereferenceable(8) double* @_ZN6Domain15deltatimemultlbEv(%class.Domain* %this) #6 comdat align 2 !dbg !1226 {
  %1 = alloca %class.Domain*, align 8
  store %class.Domain* %this, %class.Domain** %1, align 8
  call void @llvm.dbg.declare(metadata %class.Domain** %1, metadata !3989, metadata !1862), !dbg !3990
  %2 = load %class.Domain*, %class.Domain** %1, align 8
  %3 = getelementptr inbounds %class.Domain, %class.Domain* %2, i32 0, i32 76, !dbg !3991
  ret double* %3, !dbg !3992
}

; Function Attrs: nounwind uwtable
define linkonce_odr dereferenceable(8) double* @_ZN6Domain15deltatimemultubEv(%class.Domain* %this) #6 comdat align 2 !dbg !1227 {
  %1 = alloca %class.Domain*, align 8
  store %class.Domain* %this, %class.Domain** %1, align 8
  call void @llvm.dbg.declare(metadata %class.Domain** %1, metadata !3993, metadata !1862), !dbg !3994
  %2 = load %class.Domain*, %class.Domain** %1, align 8
  %3 = getelementptr inbounds %class.Domain, %class.Domain* %2, i32 0, i32 77, !dbg !3995
  ret double* %3, !dbg !3996
}

; Function Attrs: nounwind uwtable
define linkonce_odr dereferenceable(8) double* @_ZN6Domain5dtmaxEv(%class.Domain* %this) #6 comdat align 2 !dbg !1228 {
  %1 = alloca %class.Domain*, align 8
  store %class.Domain* %this, %class.Domain** %1, align 8
  call void @llvm.dbg.declare(metadata %class.Domain** %1, metadata !3997, metadata !1862), !dbg !3998
  %2 = load %class.Domain*, %class.Domain** %1, align 8
  %3 = getelementptr inbounds %class.Domain, %class.Domain* %2, i32 0, i32 78, !dbg !3999
  ret double* %3, !dbg !4000
}

; Function Attrs: inlinehint uwtable
define internal void @_ZL13LagrangeNodalR6Domain(%class.Domain* dereferenceable(1456) %domain) #5 !dbg !1230 {
  %1 = alloca %class.Domain*, align 8
  %delt = alloca double, align 8
  %u_cut = alloca double, align 8
  store %class.Domain* %domain, %class.Domain** %1, align 8
  call void @llvm.dbg.declare(metadata %class.Domain** %1, metadata !4001, metadata !1862), !dbg !4002
  call void @llvm.dbg.declare(metadata double* %delt, metadata !4003, metadata !1862), !dbg !4004
  %2 = load %class.Domain*, %class.Domain** %1, align 8, !dbg !4005
  %3 = call dereferenceable(8) double* @_ZN6Domain9deltatimeEv(%class.Domain* %2), !dbg !4005
  %4 = load double, double* %3, align 8, !dbg !4005
  store double %4, double* %delt, align 8, !dbg !4004
  call void @llvm.dbg.declare(metadata double* %u_cut, metadata !4006, metadata !1862), !dbg !4007
  %5 = load %class.Domain*, %class.Domain** %1, align 8, !dbg !4008
  %6 = call double @_ZNK6Domain5u_cutEv(%class.Domain* %5), !dbg !4008
  store double %6, double* %u_cut, align 8, !dbg !4007
  %7 = load %class.Domain*, %class.Domain** %1, align 8, !dbg !4009
  call void @_ZL17CalcForceForNodesR6Domain(%class.Domain* dereferenceable(1456) %7), !dbg !4010
  %8 = load %class.Domain*, %class.Domain** %1, align 8, !dbg !4011
  %9 = load %class.Domain*, %class.Domain** %1, align 8, !dbg !4012
  %10 = call dereferenceable(4) i32* @_ZN6Domain7numNodeEv(%class.Domain* %9), !dbg !4012
  %11 = load i32, i32* %10, align 4, !dbg !4012
  call void @_ZL24CalcAccelerationForNodesR6Domaini(%class.Domain* dereferenceable(1456) %8, i32 %11), !dbg !4013
  %12 = load %class.Domain*, %class.Domain** %1, align 8, !dbg !4015
  call void @_ZL43ApplyAccelerationBoundaryConditionsForNodesR6Domain(%class.Domain* dereferenceable(1456) %12), !dbg !4016
  %13 = load %class.Domain*, %class.Domain** %1, align 8, !dbg !4017
  %14 = load double, double* %delt, align 8, !dbg !4018
  %15 = load double, double* %u_cut, align 8, !dbg !4019
  %16 = load %class.Domain*, %class.Domain** %1, align 8, !dbg !4020
  %17 = call dereferenceable(4) i32* @_ZN6Domain7numNodeEv(%class.Domain* %16), !dbg !4020
  %18 = load i32, i32* %17, align 4, !dbg !4020
  call void @_ZL20CalcVelocityForNodesR6Domainddi(%class.Domain* dereferenceable(1456) %13, double %14, double %15, i32 %18), !dbg !4021
  %19 = load %class.Domain*, %class.Domain** %1, align 8, !dbg !4022
  %20 = load double, double* %delt, align 8, !dbg !4023
  %21 = load %class.Domain*, %class.Domain** %1, align 8, !dbg !4024
  %22 = call dereferenceable(4) i32* @_ZN6Domain7numNodeEv(%class.Domain* %21), !dbg !4024
  %23 = load i32, i32* %22, align 4, !dbg !4024
  call void @_ZL20CalcPositionForNodesR6Domaindi(%class.Domain* dereferenceable(1456) %19, double %20, i32 %23), !dbg !4025
  ret void, !dbg !4026
}

; Function Attrs: inlinehint uwtable
define internal void @_ZL16LagrangeElementsR6Domaini(%class.Domain* dereferenceable(1456) %domain, i32 %numElem) #5 !dbg !1318 {
  %1 = alloca %class.Domain*, align 8
  %2 = alloca i32, align 4
  %vnew = alloca double*, align 8
  store %class.Domain* %domain, %class.Domain** %1, align 8
  call void @llvm.dbg.declare(metadata %class.Domain** %1, metadata !4027, metadata !1862), !dbg !4028
  store i32 %numElem, i32* %2, align 4
  call void @llvm.dbg.declare(metadata i32* %2, metadata !4029, metadata !1862), !dbg !4030
  call void @llvm.dbg.declare(metadata double** %vnew, metadata !4031, metadata !1862), !dbg !4032
  %3 = load i32, i32* %2, align 4, !dbg !4033
  %4 = sext i32 %3 to i64, !dbg !4033
  %5 = call double* @_Z8AllocateIdEPT_m(i64 %4), !dbg !4034
  store double* %5, double** %vnew, align 8, !dbg !4032
  %6 = load %class.Domain*, %class.Domain** %1, align 8, !dbg !4035
  %7 = load double*, double** %vnew, align 8, !dbg !4036
  call void @_ZL20CalcLagrangeElementsR6DomainPd(%class.Domain* dereferenceable(1456) %6, double* %7), !dbg !4037
  %8 = load %class.Domain*, %class.Domain** %1, align 8, !dbg !4038
  %9 = load double*, double** %vnew, align 8, !dbg !4039
  call void @_ZL13CalcQForElemsR6DomainPd(%class.Domain* dereferenceable(1456) %8, double* %9), !dbg !4040
  %10 = load %class.Domain*, %class.Domain** %1, align 8, !dbg !4041
  %11 = load double*, double** %vnew, align 8, !dbg !4042
  call void @_ZL31ApplyMaterialPropertiesForElemsR6DomainPd(%class.Domain* dereferenceable(1456) %10, double* %11), !dbg !4043
  %12 = load %class.Domain*, %class.Domain** %1, align 8, !dbg !4044
  %13 = load double*, double** %vnew, align 8, !dbg !4045
  %14 = load %class.Domain*, %class.Domain** %1, align 8, !dbg !4046
  %15 = call double @_ZNK6Domain5v_cutEv(%class.Domain* %14), !dbg !4046
  %16 = load i32, i32* %2, align 4, !dbg !4047
  call void @_ZL21UpdateVolumesForElemsR6DomainPddi(%class.Domain* dereferenceable(1456) %12, double* %13, double %15, i32 %16), !dbg !4048
  call void @_Z7ReleaseIdEvPPT_(double** %vnew), !dbg !4049
  ret void, !dbg !4050
}

; Function Attrs: nounwind uwtable
define linkonce_odr dereferenceable(4) i32* @_ZN6Domain7numElemEv(%class.Domain* %this) #6 comdat align 2 !dbg !1496 {
  %1 = alloca %class.Domain*, align 8
  store %class.Domain* %this, %class.Domain** %1, align 8
  call void @llvm.dbg.declare(metadata %class.Domain** %1, metadata !4051, metadata !1862), !dbg !4052
  %2 = load %class.Domain*, %class.Domain** %1, align 8
  %3 = getelementptr inbounds %class.Domain, %class.Domain* %2, i32 0, i32 88, !dbg !4053
  ret i32* %3, !dbg !4054
}

; Function Attrs: inlinehint uwtable
define internal void @_ZL27CalcTimeConstraintsForElemsR6Domain(%class.Domain* dereferenceable(1456) %domain) #5 !dbg !1497 {
  %1 = alloca %class.Domain*, align 8
  %r = alloca i32, align 4
  store %class.Domain* %domain, %class.Domain** %1, align 8
  call void @llvm.dbg.declare(metadata %class.Domain** %1, metadata !4055, metadata !1862), !dbg !4056
  %2 = load %class.Domain*, %class.Domain** %1, align 8, !dbg !4057
  %3 = call dereferenceable(8) double* @_ZN6Domain9dtcourantEv(%class.Domain* %2), !dbg !4057
  store double 1.000000e+20, double* %3, align 8, !dbg !4058
  %4 = load %class.Domain*, %class.Domain** %1, align 8, !dbg !4059
  %5 = call dereferenceable(8) double* @_ZN6Domain7dthydroEv(%class.Domain* %4), !dbg !4059
  store double 1.000000e+20, double* %5, align 8, !dbg !4060
  call void @llvm.dbg.declare(metadata i32* %r, metadata !4061, metadata !1862), !dbg !4063
  store i32 0, i32* %r, align 4, !dbg !4063
  br label %6, !dbg !4064

; <label>:6                                       ; preds = %37, %0
  %7 = load i32, i32* %r, align 4, !dbg !4065
  %8 = load %class.Domain*, %class.Domain** %1, align 8, !dbg !4068
  %9 = call dereferenceable(4) i32* @_ZN6Domain6numRegEv(%class.Domain* %8), !dbg !4068
  %10 = load i32, i32* %9, align 4, !dbg !4068
  %11 = icmp slt i32 %7, %10, !dbg !4069
  br i1 %11, label %12, label %40, !dbg !4070

; <label>:12                                      ; preds = %6
  %13 = load %class.Domain*, %class.Domain** %1, align 8, !dbg !4071
  %14 = load %class.Domain*, %class.Domain** %1, align 8, !dbg !4073
  %15 = load i32, i32* %r, align 4, !dbg !4074
  %16 = call dereferenceable(4) i32* @_ZN6Domain11regElemSizeEi(%class.Domain* %14, i32 %15), !dbg !4073
  %17 = load i32, i32* %16, align 4, !dbg !4073
  %18 = load %class.Domain*, %class.Domain** %1, align 8, !dbg !4075
  %19 = load i32, i32* %r, align 4, !dbg !4076
  %20 = call i32* @_ZN6Domain11regElemlistEi(%class.Domain* %18, i32 %19), !dbg !4075
  %21 = load %class.Domain*, %class.Domain** %1, align 8, !dbg !4077
  %22 = call double @_ZNK6Domain3qqcEv(%class.Domain* %21), !dbg !4077
  %23 = load %class.Domain*, %class.Domain** %1, align 8, !dbg !4078
  %24 = call dereferenceable(8) double* @_ZN6Domain9dtcourantEv(%class.Domain* %23), !dbg !4078
  call void @_ZL29CalcCourantConstraintForElemsR6DomainiPidRd(%class.Domain* dereferenceable(1456) %13, i32 %17, i32* %20, double %22, double* dereferenceable(8) %24), !dbg !4079
  %25 = load %class.Domain*, %class.Domain** %1, align 8, !dbg !4080
  %26 = load %class.Domain*, %class.Domain** %1, align 8, !dbg !4081
  %27 = load i32, i32* %r, align 4, !dbg !4082
  %28 = call dereferenceable(4) i32* @_ZN6Domain11regElemSizeEi(%class.Domain* %26, i32 %27), !dbg !4081
  %29 = load i32, i32* %28, align 4, !dbg !4081
  %30 = load %class.Domain*, %class.Domain** %1, align 8, !dbg !4083
  %31 = load i32, i32* %r, align 4, !dbg !4084
  %32 = call i32* @_ZN6Domain11regElemlistEi(%class.Domain* %30, i32 %31), !dbg !4083
  %33 = load %class.Domain*, %class.Domain** %1, align 8, !dbg !4085
  %34 = call double @_ZNK6Domain7dvovmaxEv(%class.Domain* %33), !dbg !4085
  %35 = load %class.Domain*, %class.Domain** %1, align 8, !dbg !4086
  %36 = call dereferenceable(8) double* @_ZN6Domain7dthydroEv(%class.Domain* %35), !dbg !4086
  call void @_ZL27CalcHydroConstraintForElemsR6DomainiPidRd(%class.Domain* dereferenceable(1456) %25, i32 %29, i32* %32, double %34, double* dereferenceable(8) %36), !dbg !4087
  br label %37, !dbg !4088

; <label>:37                                      ; preds = %12
  %38 = load i32, i32* %r, align 4, !dbg !4089
  %39 = add nsw i32 %38, 1, !dbg !4089
  store i32 %39, i32* %r, align 4, !dbg !4089
  br label %6, !dbg !4091

; <label>:40                                      ; preds = %6
  ret void, !dbg !4092
}

; Function Attrs: nounwind uwtable
define linkonce_odr double @_ZNK6Domain5u_cutEv(%class.Domain* %this) #6 comdat align 2 !dbg !1231 {
  %1 = alloca %class.Domain*, align 8
  store %class.Domain* %this, %class.Domain** %1, align 8
  call void @llvm.dbg.declare(metadata %class.Domain** %1, metadata !4093, metadata !1862), !dbg !4095
  %2 = load %class.Domain*, %class.Domain** %1, align 8
  %3 = getelementptr inbounds %class.Domain, %class.Domain* %2, i32 0, i32 55, !dbg !4096
  %4 = load double, double* %3, align 8, !dbg !4096
  ret double %4, !dbg !4097
}

; Function Attrs: inlinehint uwtable
define internal void @_ZL17CalcForceForNodesR6Domain(%class.Domain* dereferenceable(1456) %domain) #5 !dbg !1232 {
  %1 = alloca %class.Domain*, align 8
  %numNode = alloca i32, align 4
  %i = alloca i32, align 4
  store %class.Domain* %domain, %class.Domain** %1, align 8
  call void @llvm.dbg.declare(metadata %class.Domain** %1, metadata !4098, metadata !1862), !dbg !4099
  call void @llvm.dbg.declare(metadata i32* %numNode, metadata !4100, metadata !1862), !dbg !4101
  %2 = load %class.Domain*, %class.Domain** %1, align 8, !dbg !4102
  %3 = call dereferenceable(4) i32* @_ZN6Domain7numNodeEv(%class.Domain* %2), !dbg !4102
  %4 = load i32, i32* %3, align 4, !dbg !4102
  store i32 %4, i32* %numNode, align 4, !dbg !4101
  call void @llvm.dbg.declare(metadata i32* %i, metadata !4103, metadata !1862), !dbg !4105
  store i32 0, i32* %i, align 4, !dbg !4105
  br label %5, !dbg !4106

; <label>:5                                       ; preds = %19, %0
  %6 = load i32, i32* %i, align 4, !dbg !4107
  %7 = load i32, i32* %numNode, align 4, !dbg !4110
  %8 = icmp slt i32 %6, %7, !dbg !4111
  br i1 %8, label %9, label %22, !dbg !4112

; <label>:9                                       ; preds = %5
  %10 = load %class.Domain*, %class.Domain** %1, align 8, !dbg !4113
  %11 = load i32, i32* %i, align 4, !dbg !4115
  %12 = call dereferenceable(8) double* @_ZN6Domain2fxEi(%class.Domain* %10, i32 %11), !dbg !4113
  store double 0.000000e+00, double* %12, align 8, !dbg !4116
  %13 = load %class.Domain*, %class.Domain** %1, align 8, !dbg !4117
  %14 = load i32, i32* %i, align 4, !dbg !4118
  %15 = call dereferenceable(8) double* @_ZN6Domain2fyEi(%class.Domain* %13, i32 %14), !dbg !4117
  store double 0.000000e+00, double* %15, align 8, !dbg !4119
  %16 = load %class.Domain*, %class.Domain** %1, align 8, !dbg !4120
  %17 = load i32, i32* %i, align 4, !dbg !4121
  %18 = call dereferenceable(8) double* @_ZN6Domain2fzEi(%class.Domain* %16, i32 %17), !dbg !4120
  store double 0.000000e+00, double* %18, align 8, !dbg !4122
  br label %19, !dbg !4123

; <label>:19                                      ; preds = %9
  %20 = load i32, i32* %i, align 4, !dbg !4124
  %21 = add nsw i32 %20, 1, !dbg !4124
  store i32 %21, i32* %i, align 4, !dbg !4124
  br label %5, !dbg !4126

; <label>:22                                      ; preds = %5
  %23 = load %class.Domain*, %class.Domain** %1, align 8, !dbg !4127
  call void @_ZL23CalcVolumeForceForElemsR6Domain(%class.Domain* dereferenceable(1456) %23), !dbg !4128
  ret void, !dbg !4129
}

; Function Attrs: inlinehint uwtable
define internal void @_ZL24CalcAccelerationForNodesR6Domaini(%class.Domain* dereferenceable(1456) %domain, i32 %numNode) #5 !dbg !1286 {
  %1 = alloca %class.Domain*, align 8
  %2 = alloca i32, align 4
  %i = alloca i32, align 4
  store %class.Domain* %domain, %class.Domain** %1, align 8
  call void @llvm.dbg.declare(metadata %class.Domain** %1, metadata !4130, metadata !1862), !dbg !4131
  store i32 %numNode, i32* %2, align 4
  call void @llvm.dbg.declare(metadata i32* %2, metadata !4132, metadata !1862), !dbg !4133
  call void @llvm.dbg.declare(metadata i32* %i, metadata !4134, metadata !1862), !dbg !4136
  store i32 0, i32* %i, align 4, !dbg !4136
  br label %3, !dbg !4137

; <label>:3                                       ; preds = %44, %0
  %4 = load i32, i32* %i, align 4, !dbg !4138
  %5 = load i32, i32* %2, align 4, !dbg !4141
  %6 = icmp slt i32 %4, %5, !dbg !4142
  br i1 %6, label %7, label %47, !dbg !4143

; <label>:7                                       ; preds = %3
  %8 = load %class.Domain*, %class.Domain** %1, align 8, !dbg !4144
  %9 = load i32, i32* %i, align 4, !dbg !4146
  %10 = call dereferenceable(8) double* @_ZN6Domain2fxEi(%class.Domain* %8, i32 %9), !dbg !4144
  %11 = load double, double* %10, align 8, !dbg !4144
  %12 = load %class.Domain*, %class.Domain** %1, align 8, !dbg !4147
  %13 = load i32, i32* %i, align 4, !dbg !4148
  %14 = call dereferenceable(8) double* @_ZN6Domain9nodalMassEi(%class.Domain* %12, i32 %13), !dbg !4149
  %15 = load double, double* %14, align 8, !dbg !4147
  %16 = fdiv double %11, %15, !dbg !4151
  %17 = load %class.Domain*, %class.Domain** %1, align 8, !dbg !4152
  %18 = load i32, i32* %i, align 4, !dbg !4153
  %19 = call dereferenceable(8) double* @_ZN6Domain3xddEi(%class.Domain* %17, i32 %18), !dbg !4154
  store double %16, double* %19, align 8, !dbg !4156
  %20 = load %class.Domain*, %class.Domain** %1, align 8, !dbg !4157
  %21 = load i32, i32* %i, align 4, !dbg !4158
  %22 = call dereferenceable(8) double* @_ZN6Domain2fyEi(%class.Domain* %20, i32 %21), !dbg !4157
  %23 = load double, double* %22, align 8, !dbg !4157
  %24 = load %class.Domain*, %class.Domain** %1, align 8, !dbg !4159
  %25 = load i32, i32* %i, align 4, !dbg !4160
  %26 = call dereferenceable(8) double* @_ZN6Domain9nodalMassEi(%class.Domain* %24, i32 %25), !dbg !4161
  %27 = load double, double* %26, align 8, !dbg !4159
  %28 = fdiv double %23, %27, !dbg !4162
  %29 = load %class.Domain*, %class.Domain** %1, align 8, !dbg !4163
  %30 = load i32, i32* %i, align 4, !dbg !4164
  %31 = call dereferenceable(8) double* @_ZN6Domain3yddEi(%class.Domain* %29, i32 %30), !dbg !4165
  store double %28, double* %31, align 8, !dbg !4166
  %32 = load %class.Domain*, %class.Domain** %1, align 8, !dbg !4167
  %33 = load i32, i32* %i, align 4, !dbg !4168
  %34 = call dereferenceable(8) double* @_ZN6Domain2fzEi(%class.Domain* %32, i32 %33), !dbg !4167
  %35 = load double, double* %34, align 8, !dbg !4167
  %36 = load %class.Domain*, %class.Domain** %1, align 8, !dbg !4169
  %37 = load i32, i32* %i, align 4, !dbg !4170
  %38 = call dereferenceable(8) double* @_ZN6Domain9nodalMassEi(%class.Domain* %36, i32 %37), !dbg !4171
  %39 = load double, double* %38, align 8, !dbg !4169
  %40 = fdiv double %35, %39, !dbg !4172
  %41 = load %class.Domain*, %class.Domain** %1, align 8, !dbg !4173
  %42 = load i32, i32* %i, align 4, !dbg !4174
  %43 = call dereferenceable(8) double* @_ZN6Domain3zddEi(%class.Domain* %41, i32 %42), !dbg !4175
  store double %40, double* %43, align 8, !dbg !4176
  br label %44, !dbg !4177

; <label>:44                                      ; preds = %7
  %45 = load i32, i32* %i, align 4, !dbg !4178
  %46 = add nsw i32 %45, 1, !dbg !4178
  store i32 %46, i32* %i, align 4, !dbg !4178
  br label %3, !dbg !4180

; <label>:47                                      ; preds = %3
  ret void, !dbg !4181
}

; Function Attrs: nounwind uwtable
define linkonce_odr dereferenceable(4) i32* @_ZN6Domain7numNodeEv(%class.Domain* %this) #6 comdat align 2 !dbg !1293 {
  %1 = alloca %class.Domain*, align 8
  store %class.Domain* %this, %class.Domain** %1, align 8
  call void @llvm.dbg.declare(metadata %class.Domain** %1, metadata !4182, metadata !1862), !dbg !4183
  %2 = load %class.Domain*, %class.Domain** %1, align 8
  %3 = getelementptr inbounds %class.Domain, %class.Domain* %2, i32 0, i32 89, !dbg !4184
  ret i32* %3, !dbg !4185
}

; Function Attrs: inlinehint uwtable
define internal void @_ZL43ApplyAccelerationBoundaryConditionsForNodesR6Domain(%class.Domain* dereferenceable(1456) %domain) #5 !dbg !1294 {
  %1 = alloca %class.Domain*, align 8
  %size = alloca i32, align 4
  %numNodeBC = alloca i32, align 4
  %i = alloca i32, align 4
  %i1 = alloca i32, align 4
  %i2 = alloca i32, align 4
  store %class.Domain* %domain, %class.Domain** %1, align 8
  call void @llvm.dbg.declare(metadata %class.Domain** %1, metadata !4186, metadata !1862), !dbg !4187
  call void @llvm.dbg.declare(metadata i32* %size, metadata !4188, metadata !1862), !dbg !4189
  %2 = load %class.Domain*, %class.Domain** %1, align 8, !dbg !4190
  %3 = call dereferenceable(4) i32* @_ZN6Domain5sizeXEv(%class.Domain* %2), !dbg !4190
  %4 = load i32, i32* %3, align 4, !dbg !4190
  store i32 %4, i32* %size, align 4, !dbg !4189
  call void @llvm.dbg.declare(metadata i32* %numNodeBC, metadata !4191, metadata !1862), !dbg !4192
  %5 = load i32, i32* %size, align 4, !dbg !4193
  %6 = add nsw i32 %5, 1, !dbg !4194
  %7 = load i32, i32* %size, align 4, !dbg !4195
  %8 = add nsw i32 %7, 1, !dbg !4196
  %9 = mul nsw i32 %6, %8, !dbg !4197
  store i32 %9, i32* %numNodeBC, align 4, !dbg !4192
  %10 = load %class.Domain*, %class.Domain** %1, align 8, !dbg !4198
  %11 = call zeroext i1 @_ZN6Domain10symmXemptyEv(%class.Domain* %10), !dbg !4198
  %12 = xor i1 %11, true, !dbg !4201
  %13 = zext i1 %12 to i32, !dbg !4201
  %14 = icmp ne i32 %13, 0, !dbg !4202
  br i1 %14, label %15, label %30, !dbg !4203

; <label>:15                                      ; preds = %0
  call void @llvm.dbg.declare(metadata i32* %i, metadata !4204, metadata !1862), !dbg !4207
  store i32 0, i32* %i, align 4, !dbg !4207
  br label %16, !dbg !4208

; <label>:16                                      ; preds = %26, %15
  %17 = load i32, i32* %i, align 4, !dbg !4209
  %18 = load i32, i32* %numNodeBC, align 4, !dbg !4212
  %19 = icmp slt i32 %17, %18, !dbg !4213
  br i1 %19, label %20, label %29, !dbg !4214

; <label>:20                                      ; preds = %16
  %21 = load %class.Domain*, %class.Domain** %1, align 8, !dbg !4215
  %22 = load %class.Domain*, %class.Domain** %1, align 8, !dbg !4216
  %23 = load i32, i32* %i, align 4, !dbg !4217
  %24 = call i32 @_ZN6Domain5symmXEi(%class.Domain* %22, i32 %23), !dbg !4216
  %25 = call dereferenceable(8) double* @_ZN6Domain3xddEi(%class.Domain* %21, i32 %24), !dbg !4218
  store double 0.000000e+00, double* %25, align 8, !dbg !4219
  br label %26, !dbg !4215

; <label>:26                                      ; preds = %20
  %27 = load i32, i32* %i, align 4, !dbg !4220
  %28 = add nsw i32 %27, 1, !dbg !4220
  store i32 %28, i32* %i, align 4, !dbg !4220
  br label %16, !dbg !4222

; <label>:29                                      ; preds = %16
  br label %30, !dbg !4223

; <label>:30                                      ; preds = %29, %0
  %31 = load %class.Domain*, %class.Domain** %1, align 8, !dbg !4224
  %32 = call zeroext i1 @_ZN6Domain10symmYemptyEv(%class.Domain* %31), !dbg !4224
  %33 = xor i1 %32, true, !dbg !4226
  %34 = zext i1 %33 to i32, !dbg !4226
  %35 = icmp ne i32 %34, 0, !dbg !4227
  br i1 %35, label %36, label %51, !dbg !4228

; <label>:36                                      ; preds = %30
  call void @llvm.dbg.declare(metadata i32* %i1, metadata !4229, metadata !1862), !dbg !4232
  store i32 0, i32* %i1, align 4, !dbg !4232
  br label %37, !dbg !4233

; <label>:37                                      ; preds = %47, %36
  %38 = load i32, i32* %i1, align 4, !dbg !4234
  %39 = load i32, i32* %numNodeBC, align 4, !dbg !4237
  %40 = icmp slt i32 %38, %39, !dbg !4238
  br i1 %40, label %41, label %50, !dbg !4239

; <label>:41                                      ; preds = %37
  %42 = load %class.Domain*, %class.Domain** %1, align 8, !dbg !4240
  %43 = load %class.Domain*, %class.Domain** %1, align 8, !dbg !4241
  %44 = load i32, i32* %i1, align 4, !dbg !4242
  %45 = call i32 @_ZN6Domain5symmYEi(%class.Domain* %43, i32 %44), !dbg !4241
  %46 = call dereferenceable(8) double* @_ZN6Domain3yddEi(%class.Domain* %42, i32 %45), !dbg !4243
  store double 0.000000e+00, double* %46, align 8, !dbg !4244
  br label %47, !dbg !4240

; <label>:47                                      ; preds = %41
  %48 = load i32, i32* %i1, align 4, !dbg !4245
  %49 = add nsw i32 %48, 1, !dbg !4245
  store i32 %49, i32* %i1, align 4, !dbg !4245
  br label %37, !dbg !4247

; <label>:50                                      ; preds = %37
  br label %51, !dbg !4248

; <label>:51                                      ; preds = %50, %30
  %52 = load %class.Domain*, %class.Domain** %1, align 8, !dbg !4249
  %53 = call zeroext i1 @_ZN6Domain10symmZemptyEv(%class.Domain* %52), !dbg !4249
  %54 = xor i1 %53, true, !dbg !4251
  %55 = zext i1 %54 to i32, !dbg !4251
  %56 = icmp ne i32 %55, 0, !dbg !4252
  br i1 %56, label %57, label %72, !dbg !4253

; <label>:57                                      ; preds = %51
  call void @llvm.dbg.declare(metadata i32* %i2, metadata !4254, metadata !1862), !dbg !4257
  store i32 0, i32* %i2, align 4, !dbg !4257
  br label %58, !dbg !4258

; <label>:58                                      ; preds = %68, %57
  %59 = load i32, i32* %i2, align 4, !dbg !4259
  %60 = load i32, i32* %numNodeBC, align 4, !dbg !4262
  %61 = icmp slt i32 %59, %60, !dbg !4263
  br i1 %61, label %62, label %71, !dbg !4264

; <label>:62                                      ; preds = %58
  %63 = load %class.Domain*, %class.Domain** %1, align 8, !dbg !4265
  %64 = load %class.Domain*, %class.Domain** %1, align 8, !dbg !4266
  %65 = load i32, i32* %i2, align 4, !dbg !4267
  %66 = call i32 @_ZN6Domain5symmZEi(%class.Domain* %64, i32 %65), !dbg !4266
  %67 = call dereferenceable(8) double* @_ZN6Domain3zddEi(%class.Domain* %63, i32 %66), !dbg !4268
  store double 0.000000e+00, double* %67, align 8, !dbg !4269
  br label %68, !dbg !4265

; <label>:68                                      ; preds = %62
  %69 = load i32, i32* %i2, align 4, !dbg !4270
  %70 = add nsw i32 %69, 1, !dbg !4270
  store i32 %70, i32* %i2, align 4, !dbg !4270
  br label %58, !dbg !4272

; <label>:71                                      ; preds = %58
  br label %72, !dbg !4273

; <label>:72                                      ; preds = %71, %51
  ret void, !dbg !4274
}

; Function Attrs: inlinehint uwtable
define internal void @_ZL20CalcVelocityForNodesR6Domainddi(%class.Domain* dereferenceable(1456) %domain, double %dt, double %u_cut, i32 %numNode) #5 !dbg !1311 {
  %1 = alloca %class.Domain*, align 8
  %2 = alloca double, align 8
  %3 = alloca double, align 8
  %4 = alloca i32, align 4
  %i = alloca i32, align 4
  %xdtmp = alloca double, align 8
  %ydtmp = alloca double, align 8
  %zdtmp = alloca double, align 8
  store %class.Domain* %domain, %class.Domain** %1, align 8
  call void @llvm.dbg.declare(metadata %class.Domain** %1, metadata !4275, metadata !1862), !dbg !4276
  store double %dt, double* %2, align 8
  call void @llvm.dbg.declare(metadata double* %2, metadata !4277, metadata !1862), !dbg !4278
  store double %u_cut, double* %3, align 8
  call void @llvm.dbg.declare(metadata double* %3, metadata !4279, metadata !1862), !dbg !4280
  store i32 %numNode, i32* %4, align 4
  call void @llvm.dbg.declare(metadata i32* %4, metadata !4281, metadata !1862), !dbg !4282
  call void @llvm.dbg.declare(metadata i32* %i, metadata !4283, metadata !1862), !dbg !4285
  store i32 0, i32* %i, align 4, !dbg !4285
  br label %5, !dbg !4286

; <label>:5                                       ; preds = %73, %0
  %6 = load i32, i32* %i, align 4, !dbg !4287
  %7 = load i32, i32* %4, align 4, !dbg !4290
  %8 = icmp slt i32 %6, %7, !dbg !4291
  br i1 %8, label %9, label %76, !dbg !4292

; <label>:9                                       ; preds = %5
  call void @llvm.dbg.declare(metadata double* %xdtmp, metadata !4293, metadata !1862), !dbg !4295
  call void @llvm.dbg.declare(metadata double* %ydtmp, metadata !4296, metadata !1862), !dbg !4297
  call void @llvm.dbg.declare(metadata double* %zdtmp, metadata !4298, metadata !1862), !dbg !4299
  %10 = load %class.Domain*, %class.Domain** %1, align 8, !dbg !4300
  %11 = load i32, i32* %i, align 4, !dbg !4301
  %12 = call dereferenceable(8) double* @_ZN6Domain2xdEi(%class.Domain* %10, i32 %11), !dbg !4300
  %13 = load double, double* %12, align 8, !dbg !4300
  %14 = load %class.Domain*, %class.Domain** %1, align 8, !dbg !4302
  %15 = load i32, i32* %i, align 4, !dbg !4303
  %16 = call dereferenceable(8) double* @_ZN6Domain3xddEi(%class.Domain* %14, i32 %15), !dbg !4304
  %17 = load double, double* %16, align 8, !dbg !4302
  %18 = load double, double* %2, align 8, !dbg !4306
  %19 = fmul double %17, %18, !dbg !4307
  %20 = fadd double %13, %19, !dbg !4308
  store double %20, double* %xdtmp, align 8, !dbg !4309
  %21 = load double, double* %xdtmp, align 8, !dbg !4310
  %22 = call double @_Z4FABSd(double %21), !dbg !4312
  %23 = load double, double* %3, align 8, !dbg !4313
  %24 = fcmp olt double %22, %23, !dbg !4314
  br i1 %24, label %25, label %26, !dbg !4315

; <label>:25                                      ; preds = %9
  store double 0.000000e+00, double* %xdtmp, align 8, !dbg !4316
  br label %26, !dbg !4318

; <label>:26                                      ; preds = %25, %9
  %27 = load double, double* %xdtmp, align 8, !dbg !4319
  %28 = load %class.Domain*, %class.Domain** %1, align 8, !dbg !4320
  %29 = load i32, i32* %i, align 4, !dbg !4321
  %30 = call dereferenceable(8) double* @_ZN6Domain2xdEi(%class.Domain* %28, i32 %29), !dbg !4320
  store double %27, double* %30, align 8, !dbg !4322
  %31 = load %class.Domain*, %class.Domain** %1, align 8, !dbg !4323
  %32 = load i32, i32* %i, align 4, !dbg !4324
  %33 = call dereferenceable(8) double* @_ZN6Domain2ydEi(%class.Domain* %31, i32 %32), !dbg !4323
  %34 = load double, double* %33, align 8, !dbg !4323
  %35 = load %class.Domain*, %class.Domain** %1, align 8, !dbg !4325
  %36 = load i32, i32* %i, align 4, !dbg !4326
  %37 = call dereferenceable(8) double* @_ZN6Domain3yddEi(%class.Domain* %35, i32 %36), !dbg !4327
  %38 = load double, double* %37, align 8, !dbg !4325
  %39 = load double, double* %2, align 8, !dbg !4328
  %40 = fmul double %38, %39, !dbg !4329
  %41 = fadd double %34, %40, !dbg !4330
  store double %41, double* %ydtmp, align 8, !dbg !4331
  %42 = load double, double* %ydtmp, align 8, !dbg !4332
  %43 = call double @_Z4FABSd(double %42), !dbg !4334
  %44 = load double, double* %3, align 8, !dbg !4335
  %45 = fcmp olt double %43, %44, !dbg !4336
  br i1 %45, label %46, label %47, !dbg !4337

; <label>:46                                      ; preds = %26
  store double 0.000000e+00, double* %ydtmp, align 8, !dbg !4338
  br label %47, !dbg !4340

; <label>:47                                      ; preds = %46, %26
  %48 = load double, double* %ydtmp, align 8, !dbg !4341
  %49 = load %class.Domain*, %class.Domain** %1, align 8, !dbg !4342
  %50 = load i32, i32* %i, align 4, !dbg !4343
  %51 = call dereferenceable(8) double* @_ZN6Domain2ydEi(%class.Domain* %49, i32 %50), !dbg !4342
  store double %48, double* %51, align 8, !dbg !4344
  %52 = load %class.Domain*, %class.Domain** %1, align 8, !dbg !4345
  %53 = load i32, i32* %i, align 4, !dbg !4346
  %54 = call dereferenceable(8) double* @_ZN6Domain2zdEi(%class.Domain* %52, i32 %53), !dbg !4345
  %55 = load double, double* %54, align 8, !dbg !4345
  %56 = load %class.Domain*, %class.Domain** %1, align 8, !dbg !4347
  %57 = load i32, i32* %i, align 4, !dbg !4348
  %58 = call dereferenceable(8) double* @_ZN6Domain3zddEi(%class.Domain* %56, i32 %57), !dbg !4349
  %59 = load double, double* %58, align 8, !dbg !4347
  %60 = load double, double* %2, align 8, !dbg !4350
  %61 = fmul double %59, %60, !dbg !4351
  %62 = fadd double %55, %61, !dbg !4352
  store double %62, double* %zdtmp, align 8, !dbg !4353
  %63 = load double, double* %zdtmp, align 8, !dbg !4354
  %64 = call double @_Z4FABSd(double %63), !dbg !4356
  %65 = load double, double* %3, align 8, !dbg !4357
  %66 = fcmp olt double %64, %65, !dbg !4358
  br i1 %66, label %67, label %68, !dbg !4359

; <label>:67                                      ; preds = %47
  store double 0.000000e+00, double* %zdtmp, align 8, !dbg !4360
  br label %68, !dbg !4362

; <label>:68                                      ; preds = %67, %47
  %69 = load double, double* %zdtmp, align 8, !dbg !4363
  %70 = load %class.Domain*, %class.Domain** %1, align 8, !dbg !4364
  %71 = load i32, i32* %i, align 4, !dbg !4365
  %72 = call dereferenceable(8) double* @_ZN6Domain2zdEi(%class.Domain* %70, i32 %71), !dbg !4364
  store double %69, double* %72, align 8, !dbg !4366
  br label %73, !dbg !4367

; <label>:73                                      ; preds = %68
  %74 = load i32, i32* %i, align 4, !dbg !4368
  %75 = add nsw i32 %74, 1, !dbg !4368
  store i32 %75, i32* %i, align 4, !dbg !4368
  br label %5, !dbg !4370

; <label>:76                                      ; preds = %5
  ret void, !dbg !4371
}

; Function Attrs: inlinehint uwtable
define internal void @_ZL20CalcPositionForNodesR6Domaindi(%class.Domain* dereferenceable(1456) %domain, double %dt, i32 %numNode) #5 !dbg !1315 {
  %1 = alloca %class.Domain*, align 8
  %2 = alloca double, align 8
  %3 = alloca i32, align 4
  %i = alloca i32, align 4
  store %class.Domain* %domain, %class.Domain** %1, align 8
  call void @llvm.dbg.declare(metadata %class.Domain** %1, metadata !4372, metadata !1862), !dbg !4373
  store double %dt, double* %2, align 8
  call void @llvm.dbg.declare(metadata double* %2, metadata !4374, metadata !1862), !dbg !4375
  store i32 %numNode, i32* %3, align 4
  call void @llvm.dbg.declare(metadata i32* %3, metadata !4376, metadata !1862), !dbg !4377
  call void @llvm.dbg.declare(metadata i32* %i, metadata !4378, metadata !1862), !dbg !4380
  store i32 0, i32* %i, align 4, !dbg !4380
  br label %4, !dbg !4381

; <label>:4                                       ; preds = %42, %0
  %5 = load i32, i32* %i, align 4, !dbg !4382
  %6 = load i32, i32* %3, align 4, !dbg !4385
  %7 = icmp slt i32 %5, %6, !dbg !4386
  br i1 %7, label %8, label %45, !dbg !4387

; <label>:8                                       ; preds = %4
  %9 = load %class.Domain*, %class.Domain** %1, align 8, !dbg !4388
  %10 = load i32, i32* %i, align 4, !dbg !4390
  %11 = call dereferenceable(8) double* @_ZN6Domain2xdEi(%class.Domain* %9, i32 %10), !dbg !4388
  %12 = load double, double* %11, align 8, !dbg !4388
  %13 = load double, double* %2, align 8, !dbg !4391
  %14 = fmul double %12, %13, !dbg !4392
  %15 = load %class.Domain*, %class.Domain** %1, align 8, !dbg !4393
  %16 = load i32, i32* %i, align 4, !dbg !4394
  %17 = call dereferenceable(8) double* @_ZN6Domain1xEi(%class.Domain* %15, i32 %16), !dbg !4395
  %18 = load double, double* %17, align 8, !dbg !4397
  %19 = fadd double %18, %14, !dbg !4397
  store double %19, double* %17, align 8, !dbg !4397
  %20 = load %class.Domain*, %class.Domain** %1, align 8, !dbg !4398
  %21 = load i32, i32* %i, align 4, !dbg !4399
  %22 = call dereferenceable(8) double* @_ZN6Domain2ydEi(%class.Domain* %20, i32 %21), !dbg !4398
  %23 = load double, double* %22, align 8, !dbg !4398
  %24 = load double, double* %2, align 8, !dbg !4400
  %25 = fmul double %23, %24, !dbg !4401
